(lp0
(lp1
VTrain Number
p2
aV751\u000aAM
p3
aV753\u000aAM
p4
aV755\u000aAM
p5
aV757\u000aAM
p6
aV759\u000aAM
p7
aV761\u000aAM
p8
aV763\u000aAM
p9
aV765\u000aPM
p10
aV767\u000aPM
p11
aV769\u000aPM
p12
aV771\u000aPM
p13
aV773\u000aPM
p14
aV775\u000aPM
p15
aV777\u000aPM
p16
aV779\u000aPM
p17
aV781\u000aPM
p18
aV783\u000aPM
p19
aV785\u000aPM
p20
aV787\u000aPM
p21
aV789\u000aPM
p22
aa(lp23
VSouth Station
p24
aV06:24
p25
aV07:10
p26
aV08:00
p27
aV08:40
p28
aV09:45
p29
aV10:45
p30
aV11:45
p31
aV12:45
p32
aV01:45
p33
aV02:45
p34
aV03:30
p35
aV04:15
p36
aV05:00
p37
aV05:45
p38
aV06:30
p39
aV07:15
p40
aV08:15
p41
aV09:00
p42
aV10:00
p43
aV11:00
p44
aa(lp45
VNewmarket
p46
aV06:33F
p47
aV07:19F
p48
aV08:09F
p49
aV08:49F
p50
aV09:54F
p51
aV10:54F
p52
aV11:54F
p53
aV12:54F
p54
aV01:54F
p55
aV02:54F
p56
aV03:39
p57
aV04:24
p58
aV05:09
p59
aV05:54
p60
aV06:39
p61
aV07:24F
p62
aV08:24F
p63
aV09:09F
p64
aV10:09F
p65
aV11:09F
p66
aa(lp67
VUphams Corner
p68
aV06:36F
p69
aV07:22F
p70
aV08:12F
p71
aV08:52F
p72
aV09:57F
p73
aV10:57F
p74
aV11:57F
p75
aV12:57F
p76
aV01:57F
p77
aV02:57F
p78
aV03:42
p79
aV04:27
p80
aV05:12
p81
aV05:57
p82
aV06:42
p83
aV07:27F
p84
aV08:27F
p85
aV09:12F
p86
aV10:12F
p87
aV11:12F
p88
aa(lp89
VFour Corners/Geneva Ave
p90
aV06:39F
p91
aV07:25F
p92
aV08:15F
p93
aV08:55F
p94
aV10:00F
p95
aV11:00F
p96
aV12:00F
p97
aV01:00F
p98
aV02:00F
p99
aV03:00F
p100
aV03:45
p101
aV04:30
p102
aV05:15
p103
aV06:00
p104
aV06:45
p105
aV07:30F
p106
aV08:30F
p107
aV09:15F
p108
aV10:15F
p109
aV11:15F
p110
aa(lp111
VTalbot Ave
p112
aV06:42F
p113
aV07:28F
p114
aV08:18F
p115
aV08:58F
p116
aV10:03F
p117
aV11:03F
p118
aV12:03F
p119
aV01:03F
p120
aV02:03F
p121
aV03:03F
p122
aV03:48
p123
aV04:33
p124
aV05:18
p125
aV06:03
p126
aV06:48
p127
aV07:33F
p128
aV08:33F
p129
aV09:18F
p130
aV10:18F
p131
aV11:18F
p132
aa(lp133
VMorton Street
p134
aV06:45F
p135
aV07:31F
p136
aV08:21F
p137
aV09:01F
p138
aV10:06F
p139
aV11:06F
p140
aV12:06F
p141
aV01:06F
p142
aV02:06F
p143
aV03:06F
p144
aV03:51
p145
aV04:36
p146
aV05:21
p147
aV06:06
p148
aV06:51
p149
aV07:36F
p150
aV08:36F
p151
aV09:21F
p152
aV10:21F
p153
aV11:21F
p154
aa(lp155
VFairmount
p156
aV06:49F
p157
aV07:35F
p158
aV08:25F
p159
aV09:05F
p160
aV10:10F
p161
aV11:10F
p162
aV12:10F
p163
aV01:10F
p164
aV02:10F
p165
aV03:10F
p166
aV03:55
p167
aV04:40
p168
aV05:25
p169
aV06:10
p170
aV06:55
p171
aV07:40F
p172
aV08:40F
p173
aV09:25F
p174
aV10:25F
p175
aV11:25F
p176
aa(lp177
VReadville
p178
aV06:54
p179
aV07:40
p180
aV08:30
p181
aV09:10
p182
aV10:15
p183
aV11:15
p184
aV12:15
p185
aV01:15
p186
aV02:15
p187
aV03:15
p188
aV04:00
p189
aV04:45
p190
aV05:30
p191
aV06:15
p192
aV07:00
p193
aV07:45
p194
aV08:45
p195
aV09:30
p196
aV10:30
p197
aV11:30
p198
aa.