(lp0
(lp1
VTrain Number
p2
aV1753\u000aAM
p3
aV1755\u000aAM
p4
aV1757\u000aAM
p5
aV1759\u000aAM
p6
aV1761\u000aAM
p7
aV1763\u000aPM
p8
aV1765\u000aPM
p9
aV1767\u000aPM
p10
aV1769\u000aPM
p11
aV1771\u000aPM
p12
aV1773\u000aPM
p13
aV1775\u000aPM
p14
aV1777\u000aPM
p15
aV1779\u000aPM
p16
aV1781\u000aPM
p17
aV1783\u000aPM
p18
aa(lp19
VSouth Station
p20
aV07:50
p21
aV08:50
p22
aV09:50
p23
aV10:50
p24
aV11:50
p25
aV12:50
p26
aV01:50
p27
aV02:50
p28
aV03:50
p29
aV04:50
p30
aV05:50
p31
aV06:50
p32
aV07:50
p33
aV08:50
p34
aV09:50
p35
aV10:50
p36
aa(lp37
VNewmarket
p38
aV07:58F
p39
aV08:58F
p40
aV09:58F
p41
aV10:58F
p42
aV11:58F
p43
aV12:58F
p44
aV01:58F
p45
aV02:58F
p46
aV03:58F
p47
aV04:58F
p48
aV05:58F
p49
aV06:58F
p50
aV07:58F
p51
aV08:58F
p52
aV09:58F
p53
aV10:58F
p54
aa(lp55
VUphams Corner
p56
aV08:01F
p57
aV09:01F
p58
aV10:01F
p59
aV11:01F
p60
aV12:01F
p61
aV01:01F
p62
aV02:01F
p63
aV03:01F
p64
aV04:01F
p65
aV05:01F
p66
aV06:01F
p67
aV07:01F
p68
aV08:01F
p69
aV09:01F
p70
aV10:01F
p71
aV11:01F
p72
aa(lp73
VFour Corners/Geneva Ave
p74
aV08:03F
p75
aV09:03F
p76
aV10:03F
p77
aV11:03F
p78
aV12:03F
p79
aV01:03F
p80
aV02:03F
p81
aV03:03F
p82
aV04:03F
p83
aV05:03F
p84
aV06:03F
p85
aV07:03F
p86
aV08:03F
p87
aV09:03F
p88
aV10:03F
p89
aV11:03F
p90
aa(lp91
VTalbot Ave
p92
aV08:05F
p93
aV09:05F
p94
aV10:05F
p95
aV11:05F
p96
aV12:05F
p97
aV01:05F
p98
aV02:05F
p99
aV03:05F
p100
aV04:05F
p101
aV05:05F
p102
aV06:05F
p103
aV07:05F
p104
aV08:05F
p105
aV09:05F
p106
aV10:05F
p107
aV11:05F
p108
aa(lp109
VMorton Street
p110
aV08:07F
p111
aV09:07F
p112
aV10:07F
p113
aV11:07F
p114
aV12:07F
p115
aV01:07F
p116
aV02:07F
p117
aV03:07F
p118
aV04:07F
p119
aV05:07F
p120
aV06:07F
p121
aV07:07F
p122
aV08:07F
p123
aV09:07F
p124
aV10:07F
p125
aV11:07F
p126
aa(lp127
VFairmount
p128
aV08:11F
p129
aV09:11F
p130
aV10:11F
p131
aV11:11F
p132
aV12:11F
p133
aV01:11F
p134
aV02:11F
p135
aV03:11F
p136
aV04:11F
p137
aV05:11F
p138
aV06:11F
p139
aV07:11F
p140
aV08:11F
p141
aV09:11F
p142
aV10:11F
p143
aV11:11F
p144
aa(lp145
VReadville
p146
aV08:15
p147
aV09:15
p148
aV10:15
p149
aV11:15
p150
aV12:15
p151
aV01:15
p152
aV02:15
p153
aV03:15
p154
aV04:15
p155
aV05:15
p156
aV06:15
p157
aV07:15
p158
aV08:15
p159
aV09:15
p160
aV10:15
p161
aV11:15
p162
aa.