(lp0
(lp1
VTrain Number
p2
aV1752\u000aAM
p3
aV1754\u000aAM
p4
aV1756\u000aAM
p5
aV1758\u000aAM
p6
aV1760\u000aAM
p7
aV1762\u000aPM
p8
aV1764\u000aPM
p9
aV1766\u000aPM
p10
aV1768\u000aPM
p11
aV1770\u000aPM
p12
aV1772\u000aPM
p13
aV1774\u000aPM
p14
aV1776\u000aPM
p15
aV1778\u000aPM
p16
aV1780\u000aPM
p17
aV1782\u000aPM
p18
aa(lp19
VReadville
p20
aV07:30
p21
aV08:30
p22
aV09:30
p23
aV10:30
p24
aV11:30
p25
aV12:30
p26
aV01:30
p27
aV02:30
p28
aV03:30
p29
aV04:30
p30
aV05:30
p31
aV06:30
p32
aV07:30
p33
aV08:30
p34
aV09:30
p35
aV10:30
p36
aa(lp37
VFairmount
p38
aV07:33F
p39
aV08:33F
p40
aV09:33F
p41
aV10:33F
p42
aV11:33F
p43
aV12:33F
p44
aV01:33F
p45
aV02:33F
p46
aV03:33F
p47
aV04:33F
p48
aV05:33F
p49
aV06:33F
p50
aV07:33F
p51
aV08:33F
p52
aV09:33F
p53
aV10:33F
p54
aa(lp55
VMorton Street
p56
aV07:37F
p57
aV08:37F
p58
aV09:37F
p59
aV10:37F
p60
aV11:37F
p61
aV12:37F
p62
aV01:37F
p63
aV02:37F
p64
aV03:37F
p65
aV04:37F
p66
aV05:37F
p67
aV06:37F
p68
aV07:37F
p69
aV08:37F
p70
aV09:37F
p71
aV10:37F
p72
aa(lp73
VTalbot Ave
p74
aV07:40F
p75
aV08:40F
p76
aV09:40F
p77
aV10:40F
p78
aV11:40F
p79
aV12:40F
p80
aV01:40F
p81
aV02:40F
p82
aV03:40F
p83
aV04:40F
p84
aV05:40F
p85
aV06:40F
p86
aV07:40F
p87
aV08:40F
p88
aV09:40F
p89
aV10:40F
p90
aa(lp91
VFour Corners/Geneva Ave
p92
aV07:42F
p93
aV08:42F
p94
aV09:42F
p95
aV10:42F
p96
aV11:42F
p97
aV12:42F
p98
aV01:42F
p99
aV02:42F
p100
aV03:42F
p101
aV04:42F
p102
aV05:42F
p103
aV06:42F
p104
aV07:42F
p105
aV08:42F
p106
aV09:42F
p107
aV10:42F
p108
aa(lp109
VUphams Corner
p110
aV07:44F
p111
aV08:44F
p112
aV09:44F
p113
aV10:44F
p114
aV11:44F
p115
aV12:44F
p116
aV01:44F
p117
aV02:44F
p118
aV03:44F
p119
aV04:44F
p120
aV05:44F
p121
aV06:44F
p122
aV07:44F
p123
aV08:44F
p124
aV09:44F
p125
aV10:44F
p126
aa(lp127
VNewmarket
p128
aV07:47F
p129
aV08:47F
p130
aV09:47F
p131
aV10:47F
p132
aV11:47F
p133
aV12:47F
p134
aV01:47F
p135
aV02:47F
p136
aV03:47F
p137
aV04:47F
p138
aV05:47F
p139
aV06:47F
p140
aV07:47F
p141
aV08:47F
p142
aV09:47F
p143
aV10:47F
p144
aa(lp145
VSouth Station
p146
aV07:55
p147
aV08:55
p148
aV09:55
p149
aV10:55
p150
aV11:55
p151
aV12:55
p152
aV01:55
p153
aV02:55
p154
aV03:55
p155
aV04:55
p156
aV05:55
p157
aV06:55
p158
aV07:55
p159
aV08:55
p160
aV09:55
p161
aV10:55
p162
aa.