(lp0
(lp1
VTrain Number
p2
aV790\u000aAM
p3
aV750\u000aAM
p4
aV752\u000aAM
p5
aV754\u000aAM
p6
aV756\u000aAM
p7
aV758\u000aAM
p8
aV760\u000aAM
p9
aV762\u000aPM
p10
aV764\u000aPM
p11
aV766\u000aPM
p12
aV768\u000aPM
p13
aV770\u000aPM
p14
aV772\u000aPM
p15
aV774\u000aPM
p16
aV776\u000aPM
p17
aV778\u000aPM
p18
aV746\u000aPM
p19
aV780\u000aPM
p20
aV782\u000aPM
p21
aV784\u000aPM
p22
aV786\u000aPM
p23
aa(lp24
VReadville
p25
aV05:39
p26
aV06:25
p27
aV07:15
p28
aV07:55
p29
aV08:45
p30
aV10:00
p31
aV11:00
p32
aV12:00
p33
aV01:00
p34
aV02:00
p35
aV02:40
p36
aV03:30
p37
aV04:15
p38
aV05:00
p39
aV05:45
p40
aV06:25
p41
aV06:30
p42
aV07:15
p43
aV08:00
p44
aV09:00
p45
aV09:45
p46
aa(lp47
VFairmount
p48
aV05:42
p49
aV06:28
p50
aV07:18
p51
aV07:58
p52
aV08:48
p53
aV10:03F
p54
aV11:03F
p55
aV12:03F
p56
aV01:03F
p57
aV02:03F
p58
aV02:43F
p59
aV03:33F
p60
aV04:18F
p61
aV05:03F
p62
aV05:48F
p63
aV 
p64
aV06:33F
p65
aV07:18F
p66
aV08:03F
p67
aV09:03F
p68
aV09:48F
p69
aa(lp70
VMorton Street
p71
aV05:47
p72
aV06:33
p73
aV07:23
p74
aV08:03
p75
aV08:53
p76
aV10:08F
p77
aV11:08F
p78
aV12:08F
p79
aV01:08F
p80
aV02:08F
p81
aV02:48F
p82
aV03:38F
p83
aV04:23F
p84
aV05:08F
p85
aV05:53F
p86
ag64
aV06:38F
p87
aV07:23F
p88
aV08:08F
p89
aV09:08F
p90
aV09:53F
p91
aa(lp92
VTalbot Ave
p93
aV05:50
p94
aV06:36
p95
aV07:26
p96
aV08:06
p97
aV08:56
p98
aV10:11F
p99
aV11:11F
p100
aV12:11F
p101
aV01:11F
p102
aV02:11F
p103
aV02:51F
p104
aV03:41F
p105
aV04:26F
p106
aV05:11F
p107
aV05:56F
p108
ag64
aV06:41F
p109
aV07:26F
p110
aV08:11F
p111
aV09:11F
p112
aV09:56F
p113
aa(lp114
VFour Corners/Geneva Ave
p115
aV05:53
p116
aV06:39
p117
aV07:29
p118
aV08:09
p119
aV08:59
p120
aV10:14F
p121
aV11:14F
p122
aV12:14F
p123
aV01:14F
p124
aV02:14F
p125
aV02:54F
p126
aV03:44F
p127
aV04:29F
p128
aV05:14F
p129
aV05:59F
p130
ag64
aV06:44F
p131
aV07:29F
p132
aV08:14F
p133
aV09:14F
p134
aV09:59F
p135
aa(lp136
VUphams Corner
p137
aV05:56
p138
aV06:42
p139
aV07:32
p140
aV08:12
p141
aV09:02
p142
aV10:17F
p143
aV11:17F
p144
aV12:17F
p145
aV01:17F
p146
aV02:17F
p147
aV02:57F
p148
aV03:47F
p149
aV04:32F
p150
aV05:17F
p151
aV06:02F
p152
ag64
aV06:47F
p153
aV07:32F
p154
aV08:17F
p155
aV09:17F
p156
aV10:02F
p157
aa(lp158
VNewmarket
p159
aV05:59
p160
aV06:45
p161
aV07:35
p162
aV08:15
p163
aV09:05
p164
aV10:20F
p165
aV11:20F
p166
aV12:20F
p167
aV01:20F
p168
aV02:20F
p169
aV03:00F
p170
aV03:50F
p171
aV04:35F
p172
aV05:20F
p173
aV06:05F
p174
ag64
aV06:50F
p175
aV07:35F
p176
aV08:20F
p177
aV09:20F
p178
aV10:05F
p179
aa(lp180
VSouth Station
p181
aV06:09
p182
aV06:55
p183
aV07:45
p184
aV08:25
p185
aV09:15
p186
aV10:30
p187
aV11:30
p188
aV12:30
p189
aV01:30
p190
aV02:30
p191
aV03:10
p192
aV04:00
p193
aV04:45
p194
aV05:30
p195
aV06:15
p196
aV06:45
p197
aV07:00
p198
aV07:45
p199
aV08:30
p200
aV09:30
p201
aV10:15
p202
aa.