(lp0
(lp1
VTrain Number
p2
aV401\u000aAM
p3
aV491\u000aAM
p4
aV403\u000aAM
p5
aV405\u000aAM
p6
aV407\u000aAM
p7
aV409\u000aAM
p8
aV411\u000aPM
p9
aV413\u000aPM
p10
aV415\u000aPM
p11
aV493\u000aPM
p12
aV417\u000aPM
p13
aV419\u000aPM
p14
aV421\u000aPM
p15
aV423\u000aPM
p16
aV425\u000aPM
p17
aV427\u000aPM
p18
aV429\u000aPM
p19
aV431\u000aPM
p20
aV433\u000aAM
p21
aa(lp22
VNorth Station
p23
aV06:25
p24
aV06:45
p25
aV07:43
p26
aV08:40
p27
aV10:00
p28
aV11:20
p29
aV01:00
p30
aV01:55
p31
aV03:30
p32
aV03:59
p33
aV04:30
p34
aV05:00
p35
aV05:35
p36
aV05:55
p37
aV06:25
p38
aV07:15
p39
aV08:45
p40
aV10:40
p41
aV12:10
p42
aa(lp43
VPorter Square
p44
aV06:35
p45
aV06:55
p46
aV07:53
p47
aV08:50
p48
aV10:10
p49
aV11:30
p50
aV01:10
p51
aV02:05
p52
aV03:40
p53
aV04:09
p54
aV04:41
p55
aV05:10
p56
aV05:46
p57
aV06:05
p58
aV06:35
p59
aV07:25
p60
aV08:55
p61
aV10:50
p62
aV12:20
p63
aa(lp64
VBelmont
p65
aV 
p66
aV07:00F
p67
aV07:58F
p68
aV08:55F
p69
aV10:15F
p70
aV11:35F
p71
aV01:15F
p72
aV02:10F
p73
aV03:45
p74
aV04:14
p75
ag66
aV05:15
p76
ag66
aV06:10
p77
aV06:40
p78
aV07:30F
p79
aV09:00F
p80
aV10:55F
p81
aV12:25F
p82
aa(lp83
VWaverley
p84
ag66
aV07:02F
p85
aV08:00F
p86
aV08:57F
p87
aV10:17F
p88
ag66
ag66
aV02:12F
p89
aV03:48
p90
aV04:17
p91
ag66
aV05:18
p92
ag66
aV06:13
p93
aV06:43
p94
aV07:32F
p95
aV09:02F
p96
aV10:57F
p97
aV12:27F
p98
aa(lp99
VWaltham
p100
ag66
aV07:07
p101
aV08:05
p102
aV09:02
p103
aV10:22
p104
aV11:41
p105
aV01:21
p106
aV02:17
p107
aV03:53
p108
aV04:22
p109
ag66
aV05:23
p110
aV05:55
p111
aV06:18
p112
aV06:48
p113
aV07:37
p114
aV09:07
p115
aV11:02
p116
aV12:32
p117
aa(lp118
VBrandeis/ Roberts
p119
ag66
aV07:10F
p120
aV08:08F
p121
aV09:05F
p122
aV10:25F
p123
aV11:44F
p124
aV01:24F
p125
aV02:20F
p126
aV03:57
p127
aV04:26
p128
ag66
aV05:27
p129
ag66
aV06:22
p130
aV06:52
p131
aV07:40F
p132
aV09:10F
p133
aV11:05F
p134
aV12:35F
p135
aa(lp136
VKendal Green
p137
ag66
aV07:14
p138
aV08:12
p139
aV09:09F
p140
aV10:29F
p141
aV11:48F
p142
aV01:28F
p143
aV02:24F
p144
aV04:01
p145
aV04:30
p146
ag66
aV05:31
p147
ag66
aV06:26
p148
aV06:56
p149
aV07:44F
p150
aV09:14F
p151
aV11:09F
p152
aV12:39F
p153
aa(lp154
VHastings
p155
ag66
ag66
ag66
ag66
ag66
ag66
ag66
ag66
ag66
aV04:33
p156
ag66
aV05:34
p157
ag66
aV06:29
p158
aV06:59
p159
aV07:47F
p160
ag66
ag66
ag66
aa(lp161
VSilver Hill
p162
ag66
ag66
ag66
ag66
ag66
ag66
ag66
ag66
ag66
ag66
ag66
ag66
ag66
aV06:31F
p163
aV07:01F
p164
aV07:49F
p165
ag66
ag66
ag66
aa(lp166
VLincoln
p167
ag66
aV07:20F
p168
aV08:18F
p169
aV09:15F
p170
aV10:35F
p171
aV11:54F
p172
aV01:34F
p173
aV02:30F
p174
aV04:07
p175
aV04:39
p176
ag66
aV05:40
p177
aV06:06
p178
aV06:36
p179
aV07:06
p180
aV07:54
p181
aV09:20F
p182
aV11:15F
p183
aV12:45F
p184
aa(lp185
VConcord
p186
ag66
aV07:25F
p187
aV08:23F
p188
aV09:20F
p189
aV10:40F
p190
aV11:59F
p191
aV01:39F
p192
aV02:35F
p193
aV04:12
p194
aV04:44
p195
ag66
aV05:45
p196
aV06:11
p197
aV06:41
p198
aV07:11
p199
aV07:59
p200
aV09:25F
p201
aV11:20F
p202
aV12:50F
p203
aa(lp204
VWest Concord
p205
ag66
aV07:29F
p206
aV08:27F
p207
aV09:24F
p208
aV10:44F
p209
aV12:03F
p210
aV01:43F
p211
aV02:39F
p212
aV04:17
p213
aV04:49
p214
ag66
aV05:50
p215
aV06:16
p216
aV06:46
p217
aV07:16
p218
aV08:03
p219
aV09:29F
p220
aV11:24F
p221
aV12:54F
p222
aa(lp223
VSouth Acton
p224
aV06:59
p225
aV07:33
p226
aV08:31
p227
aV09:28
p228
aV10:48
p229
aV12:07
p230
aV01:47
p231
aV02:43
p232
aV04:21
p233
aV04:53
p234
aV05:07
p235
aV05:54
p236
aV06:21
p237
aV06:50
p238
aV07:20
p239
aV08:07
p240
aV09:33
p241
aV11:28
p242
aV12:58
p243
aa(lp244
VLittleton / Rte 495
p245
aV07:06
p246
aV07:40
p247
aV08:38
p248
aV09:35
p249
aV10:55
p250
aV12:14
p251
aV01:54
p252
aV02:50
p253
aV04:28
p254
aV05:00
p255
aV05:14
p256
aV06:01
p257
aV06:28
p258
aV06:57
p259
aV07:27
p260
aV08:14
p261
aV09:40
p262
aV11:35
p263
aV01:05
p264
aa(lp265
VAyer
p266
aV07:14F
p267
ag66
aV08:46F
p268
aV09:43F
p269
aV11:03F
p270
aV12:22F
p271
aV02:02F
p272
aV02:58F
p273
aV04:36
p274
ag66
aV05:22
p275
aV06:09
p276
aV06:36
p277
aV07:05
p278
aV07:35
p279
aV08:22
p280
aV09:48F
p281
aV11:43F
p282
aV01:13F
p283
aa(lp284
VShirley
p285
aV07:19F
p286
ag66
aV08:51F
p287
aV09:48F
p288
aV11:08F
p289
aV12:27F
p290
aV02:07F
p291
aV03:03F
p292
aV04:42
p293
ag66
aV05:27
p294
aV06:15
p295
aV06:42
p296
aV07:11
p297
aV07:41
p298
aV08:27
p299
aV09:53F
p300
aV11:48F
p301
aV01:18F
p302
aa(lp303
VNorth Leominster
p304
aV07:28
p305
ag66
aV09:00
p306
aV09:57
p307
aV11:17
p308
aV12:36
p309
aV02:16
p310
aV03:12
p311
aV04:51
p312
ag66
aV05:36
p313
aV06:24
p314
aV06:51
p315
aV07:20
p316
aV07:50
p317
aV08:36
p318
aV10:02
p319
aV11:57
p320
aV01:27
p321
aa(lp322
VFitchburg
p323
aV07:35
p324
ag66
aV09:07
p325
aV10:04
p326
aV11:24
p327
aV12:45
p328
aV02:23
p329
aV03:21
p330
aV04:58
p331
ag66
aV05:43
p332
aV06:31
p333
aV07:00
p334
aV07:27
p335
aV07:59
p336
aV08:43
p337
aV10:09
p338
aV12:04
p339
aV01:34
p340
aa(lp341
VWachusett
p342
aV07:45
p343
ag66
aV09:17
p344
aV10:14
p345
aV11:34
p346
aV12:55
p347
aV02:33
p348
aV03:31
p349
aV05:08
p350
ag66
aV05:53
p351
aV06:41
p352
aV07:10
p353
aV07:37
p354
aV08:09
p355
aV08:53
p356
aV10:19
p357
aV12:14
p358
aV01:44
p359
aa.