(lp0
(lp1
VTrain Number
p2
aV400\u000aAM
p3
aV402\u000aAM
p4
aV404\u000aAM
p5
aV406\u000aAM
p6
aV408\u000aAM
p7
aV492\u000aAM
p8
aV410\u000aAM
p9
aV412\u000aAM
p10
aV414\u000aAM
p11
aV416\u000aPM
p12
aV418\u000aPM
p13
aV420\u000aPM
p14
aV422\u000aPM
p15
aV494\u000aPM
p16
aV424\u000aPM
p17
aV426\u000aPM
p18
aV428\u000aPM
p19
aV430\u000aPM
p20
aV432\u000aPM
p21
aa(lp22
VWachusett
p23
aV04:50
p24
aV05:45
p25
aV06:20
p26
aV06:45
p27
aV07:10
p28
aV 
p29
aV08:00
p30
aV09:32
p31
aV10:50
p32
aV12:00
p33
aV01:30
p34
aV02:55
p35
aV04:06
p36
ag29
aV05:43
p37
aV06:59
p38
aV08:25
p39
aV09:30
p40
aV10:35
p41
aa(lp42
VFitchburg
p43
aV04:58
p44
aV05:53
p45
aV06:28
p46
aV06:53
p47
aV07:18
p48
ag29
aV08:08
p49
aV09:40
p50
aV10:58
p51
aV12:08
p52
aV01:38
p53
aV03:03
p54
aV04:14
p55
ag29
aV05:51
p56
aV07:07
p57
aV08:33
p58
aV09:38
p59
aV10:43
p60
aa(lp61
VNorth Leominster
p62
aV05:04
p63
aV05:59
p64
aV06:34
p65
aV06:59
p66
aV07:25
p67
ag29
aV08:14
p68
aV09:46
p69
aV11:04
p70
aV12:14
p71
aV01:44
p72
aV03:09
p73
aV04:20
p74
ag29
aV05:57
p75
aV07:13
p76
aV08:39
p77
aV09:44
p78
aV10:49
p79
aa(lp80
VShirley
p81
aV05:12
p82
aV06:07
p83
aV06:42
p84
aV07:07
p85
aV07:33
p86
ag29
aV08:22
p87
aV09:54F
p88
aV11:12F
p89
aV12:22F
p90
aV01:52F
p91
aV03:17F
p92
aV04:28
p93
ag29
aV06:05F
p94
aV07:21F
p95
aV08:47F
p96
aV09:52F
p97
aV10:57F
p98
aa(lp99
VAyer
p100
aV05:17
p101
aV06:12
p102
aV06:47
p103
aV07:12
p104
aV07:38
p105
ag29
aV08:27
p106
aV09:59F
p107
aV11:17F
p108
aV12:27F
p109
aV01:57F
p110
aV03:22F
p111
aV04:33
p112
ag29
aV06:10F
p113
aV07:26F
p114
aV08:52F
p115
aV09:57F
p116
aV11:02F
p117
aa(lp118
VLittleton / Rte 495
p119
aV05:25
p120
aV06:20
p121
aV06:55
p122
aV07:20
p123
aV07:46
p124
aV07:55
p125
aV08:35
p126
aV10:07
p127
aV11:25
p128
aV12:35
p129
aV02:05
p130
aV03:30
p131
aV04:41
p132
aV05:15
p133
aV06:18
p134
aV07:34
p135
aV09:00
p136
aV10:05
p137
aV11:10
p138
aa(lp139
VSouth Acton
p140
aV05:32
p141
aV06:27
p142
aV07:02
p143
aV07:27
p144
aV07:53
p145
aV08:02
p146
aV08:42
p147
aV10:14
p148
aV11:32
p149
aV12:42
p150
aV02:12
p151
aV03:37
p152
aV04:48
p153
aV05:22
p154
aV06:25
p155
aV07:41
p156
aV09:07
p157
aV10:12
p158
aV11:17
p159
aa(lp160
VWest Concord
p161
aV05:36
p162
aV06:31
p163
ag29
aV07:31
p164
ag29
aV08:06
p165
aV08:46
p166
aV10:17F
p167
aV11:35F
p168
aV12:45F
p169
aV02:15F
p170
aV03:40F
p171
aV04:53
p172
aV05:25F
p173
aV06:28F
p174
aV07:44F
p175
aV09:10F
p176
aV10:15F
p177
aV11:20F
p178
aa(lp179
VConcord
p180
aV05:41
p181
aV06:36
p182
ag29
aV07:36
p183
ag29
aV08:11
p184
aV08:51
p185
aV10:21F
p186
aV11:39F
p187
aV12:49F
p188
aV02:19F
p189
aV03:44F
p190
aV04:57
p191
aV05:29F
p192
aV06:32F
p193
aV07:48F
p194
aV09:14F
p195
aV10:19F
p196
aV11:24F
p197
aa(lp198
VLincoln
p199
aV05:49
p200
aV06:44
p201
ag29
aV07:44
p202
ag29
aV08:19
p203
aV08:59
p204
aV10:28F
p205
aV11:46F
p206
aV12:56F
p207
aV02:26F
p208
aV03:51F
p209
aV05:04
p210
aV05:36F
p211
aV06:39F
p212
aV07:55F
p213
aV09:21F
p214
aV10:26F
p215
aV11:31F
p216
aa(lp217
VSilver Hill
p218
ag29
aV06:47F
p219
ag29
ag29
ag29
aV08:22F
p220
ag29
ag29
ag29
ag29
ag29
ag29
ag29
ag29
ag29
ag29
ag29
ag29
ag29
aa(lp221
VHastings
p222
aV05:54
p223
aV06:50
p224
ag29
ag29
ag29
aV08:25
p225
ag29
aV10:32F
p226
aV11:50F
p227
ag29
ag29
ag29
ag29
ag29
ag29
ag29
ag29
ag29
ag29
aa(lp228
VKendal Green
p229
aV05:57
p230
aV06:53
p231
ag29
aV07:51
p232
ag29
aV08:28
p233
aV09:05
p234
aV10:34F
p235
aV11:52F
p236
aV01:02F
p237
aV02:32F
p238
aV03:57F
p239
aV05:10F
p240
aV05:42F
p241
aV06:45F
p242
aV08:01F
p243
aV09:27F
p244
aV10:32F
p245
aV11:37F
p246
aa(lp247
VBrandeis/ Roberts
p248
aV06:00
p249
aV06:56
p250
ag29
aV07:54
p251
ag29
aV08:31
p252
aV09:08
p253
aV10:36F
p254
aV11:54F
p255
aV01:04F
p256
aV02:34F
p257
aV03:59F
p258
aV05:13F
p259
aV05:44F
p260
aV06:47F
p261
aV08:03F
p262
aV09:29F
p263
aV10:34F
p264
aV11:39F
p265
aa(lp266
VWaltham
p267
aV06:04
p268
aV07:00
p269
ag29
aV07:58
p270
aV08:12
p271
aV08:35
p272
aV09:12
p273
aV10:40
p274
aV11:58
p275
aV01:08
p276
aV02:38
p277
aV04:03
p278
aV05:17
p279
aV05:48
p280
aV06:51
p281
aV08:07
p282
aV09:33
p283
aV10:38
p284
aV11:43
p285
aa(lp286
VWaverley
p287
aV06:09
p288
aV07:05
p289
ag29
aV08:03
p290
ag29
aV08:40
p291
aV09:17
p292
aV10:45F
p293
aV12:03F
p294
ag29
ag29
ag29
aV05:22F
p295
aV05:53F
p296
ag29
ag29
aV09:38F
p297
ag29
ag29
aa(lp298
VBelmont
p299
aV06:12
p300
aV07:08
p301
ag29
aV08:06
p302
ag29
aV08:43
p303
aV09:20
p304
aV10:47F
p305
aV12:05F
p306
aV01:14F
p307
aV02:44F
p308
aV04:09F
p309
aV05:24F
p310
aV05:55F
p311
aV06:57F
p312
aV08:13F
p313
aV09:40F
p314
aV10:44F
p315
aV11:49F
p316
aa(lp317
VPorter Square
p318
aV06:17
p319
aV07:13
p320
aV07:28
p321
aV08:11
p322
aV08:22
p323
aV08:48
p324
aV09:25
p325
aV10:52
p326
aV12:10
p327
aV01:19
p328
aV02:49
p329
aV04:14
p330
aV05:29
p331
aV06:00
p332
aV07:02
p333
aV08:18
p334
aV09:45
p335
aV10:49
p336
aV11:54
p337
aa(lp338
VNorth Station
p339
aV06:27
p340
aV07:23
p341
aV07:38
p342
aV08:21
p343
aV08:32
p344
aV08:58
p345
aV09:35
p346
aV11:02
p347
aV12:20
p348
aV01:29
p349
aV02:59
p350
aV04:24
p351
aV05:39
p352
aV06:10
p353
aV07:12
p354
aV08:28
p355
aV09:55
p356
aV10:59
p357
aV12:04
p358
aa.