(lp0
(lp1
VTrain Number
p2
aV2401\u000aAM
p3
aV2403\u000aAM
p4
aV2405\u000aPM
p5
aV2407\u000aPM
p6
aV2409\u000aPM
p7
aV2411\u000aPM
p8
aV2413\u000aPM
p9
aa(lp10
VNorth Station
p11
aV08:35
p12
aV10:45
p13
aV01:10
p14
aV03:30
p15
aV05:45
p16
aV07:55
p17
aV11:30
p18
aa(lp19
VPorter Square
p20
aV08:45
p21
aV10:55
p22
aV01:20
p23
aV03:40
p24
aV05:55
p25
aV08:05
p26
aV11:40
p27
aa(lp28
VBelmont
p29
aV08:49F
p30
aV10:59F
p31
aV01:24F
p32
aV03:44F
p33
aV05:59F
p34
aV08:09F
p35
aV11:44F
p36
aa(lp37
VWaverley
p38
aV08:52F
p39
aV11:02F
p40
aV01:27F
p41
aV03:47F
p42
aV06:02F
p43
aV08:12F
p44
aV11:47F
p45
aa(lp46
VWaltham
p47
aV08:57
p48
aV11:07
p49
aV01:32
p50
aV03:52
p51
aV06:07
p52
aV08:17
p53
aV11:52
p54
aa(lp55
VBrandeis/ Roberts
p56
aV09:00F
p57
aV11:10F
p58
aV01:35F
p59
aV03:55F
p60
aV06:10F
p61
aV08:20F
p62
aV11:55F
p63
aa(lp64
VKendal Green
p65
aV09:04F
p66
aV11:14F
p67
aV01:39F
p68
aV03:59F
p69
aV06:14F
p70
aV08:24F
p71
aV11:59F
p72
aa(lp73
VLincoln
p74
aV09:09
p75
aV11:19
p76
aV01:44
p77
aV04:04
p78
aV06:19
p79
aV08:29
p80
aV12:04
p81
aa(lp82
VConcord
p83
aV09:15
p84
aV11:25
p85
aV01:50
p86
aV04:10
p87
aV06:25
p88
aV08:35
p89
aV12:10
p90
aa(lp91
VWest Concord
p92
aV09:18F
p93
aV11:28F
p94
aV01:53F
p95
aV04:13F
p96
aV06:28F
p97
aV08:38F
p98
aV12:13F
p99
aa(lp100
VSouth Acton
p101
aV09:24
p102
aV11:34
p103
aV01:59
p104
aV04:19
p105
aV06:34
p106
aV08:44
p107
aV12:19
p108
aa(lp109
VLittleton / Rte 495
p110
aV09:31
p111
aV11:41
p112
aV02:06
p113
aV04:26
p114
aV06:41
p115
aV08:51
p116
aV12:26
p117
aa(lp118
VAyer
p119
aV09:38
p120
aV11:48
p121
aV02:13
p122
aV04:33
p123
aV06:48
p124
aV08:58
p125
aV12:33
p126
aa(lp127
VShirley
p128
aV09:43F
p129
aV11:53F
p130
aV02:18F
p131
aV04:38F
p132
aV06:53F
p133
aV09:03F
p134
aV12:38F
p135
aa(lp136
VNorth Leominster
p137
aV09:51
p138
aV12:01
p139
aV02:26
p140
aV04:46
p141
aV07:01
p142
aV09:11
p143
aV12:46
p144
aa(lp145
VFitchburg
p146
aV10:01
p147
aV12:11
p148
aV02:36
p149
aV04:58
p150
aV07:11
p151
aV09:21
p152
aV12:56
p153
aa(lp154
VWachusett
p155
aV10:11
p156
aV12:21
p157
aV02:46
p158
aV05:08
p159
aV07:21
p160
aV09:31
p161
aV01:06
p162
aa.