(lp0
(lp1
VTrain Number
p2
aV2400\u000aAM
p3
aV2402\u000aAM
p4
aV2404\u000aAM
p5
aV2406\u000aPM
p6
aV2408\u000aPM
p7
aV2410\u000aPM
p8
aV2412\u000aPM
p9
aa(lp10
VWachusett
p11
aV06:30
p12
aV08:45
p13
aV10:50
p14
aV01:15
p15
aV03:40
p16
aV06:10
p17
aV09:45
p18
aa(lp19
VFitchburg
p20
aV06:38
p21
aV08:53
p22
aV10:58
p23
aV01:23
p24
aV03:48
p25
aV06:18
p26
aV09:53
p27
aa(lp28
VNorth Leominster
p29
aV06:44
p30
aV08:59
p31
aV11:04
p32
aV01:29
p33
aV03:54
p34
aV06:24
p35
aV09:59
p36
aa(lp37
VShirley
p38
aV06:51F
p39
aV09:07F
p40
aV11:12F
p41
aV01:37F
p42
aV04:02F
p43
aV06:32F
p44
aV10:07F
p45
aa(lp46
VAyer
p47
aV06:56
p48
aV09:12
p49
aV11:17
p50
aV01:42
p51
aV04:07
p52
aV06:37
p53
aV10:12
p54
aa(lp55
VLittleton / Rte 495
p56
aV07:04
p57
aV09:20
p58
aV11:25
p59
aV01:50
p60
aV04:15
p61
aV06:45
p62
aV10:20
p63
aa(lp64
VSouth Acton
p65
aV07:10
p66
aV09:26
p67
aV11:31
p68
aV01:56
p69
aV04:21
p70
aV06:51
p71
aV10:26
p72
aa(lp73
VWest Concord
p74
aV07:16F
p75
aV09:31F
p76
aV11:36F
p77
aV02:01F
p78
aV04:26F
p79
aV06:56F
p80
aV10:31F
p81
aa(lp82
VConcord
p83
aV07:20
p84
aV09:35
p85
aV11:40
p86
aV02:05
p87
aV04:30
p88
aV07:00
p89
aV10:35
p90
aa(lp91
VLincoln
p92
aV07:25
p93
aV09:40
p94
aV11:45
p95
aV02:10
p96
aV04:35
p97
aV07:05
p98
aV10:40
p99
aa(lp100
VKendal Green
p101
aV07:30F
p102
aV09:45F
p103
aV11:50F
p104
aV02:15F
p105
aV04:40F
p106
aV07:10F
p107
aV10:45F
p108
aa(lp109
VBrandeis/ Roberts
p110
aV07:34F
p111
aV09:49F
p112
aV11:54F
p113
aV02:19F
p114
aV04:44F
p115
aV07:14F
p116
aV10:49F
p117
aa(lp118
VWaltham
p119
aV07:38
p120
aV09:53
p121
aV11:58
p122
aV02:23
p123
aV04:48
p124
aV07:18
p125
aV10:53
p126
aa(lp127
VWaverley
p128
aV07:42F
p129
aV09:57F
p130
aV12:02F
p131
aV02:27F
p132
aV04:52F
p133
aV07:22F
p134
aV10:57F
p135
aa(lp136
VBelmont
p137
aV07:45F
p138
aV10:00F
p139
aV12:05F
p140
aV02:30F
p141
aV04:55F
p142
aV07:25F
p143
aV11:00F
p144
aa(lp145
VPorter Square
p146
aV07:50
p147
aV10:05
p148
aV12:10
p149
aV02:35
p150
aV05:00
p151
aV07:30
p152
aV11:05
p153
aa(lp154
VNorth Station
p155
aV08:00
p156
aV10:15
p157
aV12:20
p158
aV02:45
p159
aV05:10
p160
aV07:40
p161
aV11:15
p162
aa.