(lp0
(lp1
VTrain Number
p2
aV2706\u000aAM
p3
aV2708\u000aPM
p4
aV2710\u000aPM
p5
aV2712\u000aPM
p6
aV2714\u000aPM
p7
aV2716\u000aPM
p8
aV2718\u000aPM
p9
aa(lp10
VForge Park / 495
p11
aV10:40
p12
aV12:40
p13
aV02:35
p14
aV04:35
p15
aV06:35
p16
aV08:35
p17
aV10:35
p18
aa(lp19
VFranklin
p20
aV10:47
p21
aV12:47
p22
aV02:42
p23
aV04:42
p24
aV06:42
p25
aV08:42
p26
aV10:42
p27
aa(lp28
VNorfolk
p29
aV10:54
p30
aV12:54
p31
aV02:49
p32
aV04:49
p33
aV06:49
p34
aV08:49
p35
aV10:49
p36
aa(lp37
VWalpole
p38
aV11:01
p39
aV01:01
p40
aV02:56
p41
aV04:56
p42
aV06:55
p43
aV08:55
p44
aV10:55
p45
aa(lp46
VWindsor Gardens
p47
aV11:06
p48
aV01:06
p49
aV03:01
p50
aV05:01
p51
aV06:59
p52
aV08:59
p53
aV10:59
p54
aa(lp55
VNorwood Central
p56
aV11:10
p57
aV01:10
p58
aV03:05
p59
aV05:05
p60
aV07:03
p61
aV09:03
p62
aV11:03
p63
aa(lp64
VNorwood Depot
p65
aV11:12
p66
aV01:12
p67
aV03:07
p68
aV05:07
p69
aV07:05
p70
aV09:05
p71
aV11:05
p72
aa(lp73
VIslington
p74
aV11:16
p75
aV01:16
p76
aV03:11
p77
aV05:11
p78
aV07:08
p79
aV09:08
p80
aV11:08
p81
aa(lp82
VDedham Corp. Center
p83
aV11:19
p84
aV01:19
p85
aV03:14
p86
aV05:14
p87
aV07:10
p88
aV09:10
p89
aV11:10
p90
aa(lp91
VEndicott
p92
aV11:21
p93
aV01:21
p94
aV03:16
p95
aV05:16
p96
aV07:13
p97
aV09:13
p98
aV11:13
p99
aa(lp100
VReadville
p101
aV11:24
p102
aV01:24
p103
aV03:19
p104
aV05:19
p105
aV07:16
p106
aV09:16
p107
aV11:16
p108
aa(lp109
VRuggles
p110
aV11:34
p111
aV01:34
p112
aV03:29
p113
aV05:29
p114
aV07:26
p115
aV09:26
p116
aV11:26
p117
aa(lp118
VBack Bay
p119
aV11:38
p120
aV01:38
p121
aV03:33
p122
aV05:33
p123
aV07:30
p124
aV09:30
p125
aV11:30
p126
aa(lp127
VSouth Station
p128
aV11:43
p129
aV01:43
p130
aV03:38
p131
aV05:38
p132
aV07:35
p133
aV09:35
p134
aV11:35
p135
aa.