(lp0
(lp1
VTrain Number
p2
aV1702\u000aAM
p3
aV1704\u000aAM
p4
aV1706\u000aAM
p5
aV1708\u000aPM
p6
aV1710\u000aPM
p7
aV1712\u000aPM
p8
aV1714\u000aPM
p9
aV1716\u000aPM
p10
aV1718\u000aPM
p11
aa(lp12
VForge Park / 495
p13
aV06:35
p14
aV08:35
p15
aV10:40
p16
aV12:40
p17
aV02:35
p18
aV04:35
p19
aV06:35
p20
aV08:35
p21
aV10:35
p22
aa(lp23
VFranklin
p24
aV06:42
p25
aV08:42
p26
aV10:47
p27
aV12:47
p28
aV02:42
p29
aV04:42
p30
aV06:42
p31
aV08:42
p32
aV10:42
p33
aa(lp34
VNorfolk
p35
aV06:49
p36
aV08:49
p37
aV10:54
p38
aV12:54
p39
aV02:49
p40
aV04:49
p41
aV06:49
p42
aV08:49
p43
aV10:49
p44
aa(lp45
VWalpole
p46
aV06:55
p47
aV08:56
p48
aV11:01
p49
aV01:01
p50
aV02:56
p51
aV04:56
p52
aV06:55
p53
aV08:55
p54
aV10:55
p55
aa(lp56
VWindsor Gardens
p57
aV06:59
p58
aV09:00
p59
aV11:06
p60
aV01:06
p61
aV03:01
p62
aV05:01
p63
aV06:59
p64
aV08:59
p65
aV10:59
p66
aa(lp67
VNorwood Central
p68
aV07:03
p69
aV09:05
p70
aV11:10
p71
aV01:10
p72
aV03:05
p73
aV05:05
p74
aV07:03
p75
aV09:03
p76
aV11:03
p77
aa(lp78
VNorwood Depot
p79
aV07:05
p80
aV09:07
p81
aV11:12
p82
aV01:12
p83
aV03:07
p84
aV05:07
p85
aV07:05
p86
aV09:05
p87
aV11:05
p88
aa(lp89
VIslington
p90
aV07:08
p91
aV09:10
p92
aV11:16
p93
aV01:16
p94
aV03:11
p95
aV05:11
p96
aV07:08
p97
aV09:08
p98
aV11:08
p99
aa(lp100
VDedham Corp. Center
p101
aV07:10
p102
aV09:12
p103
aV11:19
p104
aV01:19
p105
aV03:14
p106
aV05:14
p107
aV07:10
p108
aV09:10
p109
aV11:10
p110
aa(lp111
VEndicott
p112
aV07:13
p113
aV09:15
p114
aV11:21
p115
aV01:21
p116
aV03:16
p117
aV05:16
p118
aV07:13
p119
aV09:13
p120
aV11:13
p121
aa(lp122
VReadville
p123
aV07:16
p124
aV09:18
p125
aV11:24
p126
aV01:24
p127
aV03:19
p128
aV05:19
p129
aV07:16
p130
aV09:16
p131
aV11:16
p132
aa(lp133
VRuggles
p134
aV07:26
p135
aV09:28
p136
aV11:34
p137
aV01:34
p138
aV03:29
p139
aV05:29
p140
aV07:26
p141
aV09:26
p142
aV11:26
p143
aa(lp144
VBack Bay
p145
aV07:30
p146
aV09:33
p147
aV11:38
p148
aV01:38
p149
aV03:33
p150
aV05:33
p151
aV07:30
p152
aV09:30
p153
aV11:30
p154
aa(lp155
VSouth Station
p156
aV07:35
p157
aV09:38
p158
aV11:43
p159
aV01:43
p160
aV03:38
p161
aV05:38
p162
aV07:35
p163
aV09:35
p164
aV11:35
p165
aa.