(lp0
(lp1
VTrain Number
p2
aV1703\u000aAM
p3
aV1705\u000aAM
p4
aV1707\u000aAM
p5
aV1709\u000aPM
p6
aV1711\u000aPM
p7
aV1713\u000aPM
p8
aV1715\u000aPM
p9
aV1717\u000aPM
p10
aV1719\u000aPM
p11
aa(lp12
VSouth Station
p13
aV07:20
p14
aV09:20
p15
aV11:20
p16
aV01:20
p17
aV03:20
p18
aV05:20
p19
aV07:20
p20
aV09:20
p21
aV11:20
p22
aa(lp23
VBack Bay
p24
aV07:25
p25
aV09:25
p26
aV11:25
p27
aV01:25
p28
aV03:25
p29
aV05:25
p30
aV07:25
p31
aV09:25
p32
aV11:25
p33
aa(lp34
VRuggles
p35
aV07:28
p36
aV09:28
p37
aV11:28
p38
aV01:28
p39
aV03:28
p40
aV05:28
p41
aV07:28
p42
aV09:28
p43
aV11:28
p44
aa(lp45
VReadville
p46
aV07:38
p47
aV09:38
p48
aV11:38
p49
aV01:38
p50
aV03:38
p51
aV05:38
p52
aV07:38
p53
aV09:38
p54
aV11:38
p55
aa(lp56
VEndicott
p57
aV07:41
p58
aV09:41
p59
aV11:41
p60
aV01:41
p61
aV03:41
p62
aV05:41
p63
aV07:41
p64
aV09:41
p65
aV11:41
p66
aa(lp67
VDedham Corp. Center
p68
aV07:44
p69
aV09:44
p70
aV11:44
p71
aV01:45
p72
aV03:45
p73
aV05:45
p74
aV07:44
p75
aV09:44
p76
aV11:44
p77
aa(lp78
VIslington
p79
aV07:46
p80
aV09:46
p81
aV11:46
p82
aV01:47
p83
aV03:47
p84
aV05:47
p85
aV07:46
p86
aV09:46
p87
aV11:46
p88
aa(lp89
VNorwood Depot
p90
aV07:49
p91
aV09:49
p92
aV11:49
p93
aV01:50
p94
aV03:50
p95
aV05:50
p96
aV07:49
p97
aV09:49
p98
aV11:49
p99
aa(lp100
VNorwood Central
p101
aV07:51
p102
aV09:51
p103
aV11:51
p104
aV01:53
p105
aV03:53
p106
aV05:53
p107
aV07:52
p108
aV09:51
p109
aV11:51
p110
aa(lp111
VWindsor Gardens
p112
aV07:55
p113
aV09:55
p114
aV11:55
p115
aV01:57
p116
aV03:57
p117
aV05:57
p118
aV07:56
p119
aV09:55
p120
aV11:55
p121
aa(lp122
VWalpole
p123
aV07:59
p124
aV09:59
p125
aV11:59
p126
aV02:03
p127
aV04:03
p128
aV06:03
p129
aV08:01
p130
aV09:59
p131
aV11:59
p132
aa(lp133
VNorfolk
p134
aV08:05
p135
aV10:05
p136
aV12:05
p137
aV02:10
p138
aV04:10
p139
aV06:10
p140
aV08:07
p141
aV10:05
p142
aV12:05
p143
aa(lp144
VFranklin
p145
aV08:12
p146
aV10:12
p147
aV12:12
p148
aV02:17
p149
aV04:17
p150
aV06:17
p151
aV08:15
p152
aV10:12
p153
aV12:12
p154
aa(lp155
VForge Park / 495
p156
aV08:19
p157
aV10:19
p158
aV12:19
p159
aV02:24
p160
aV04:24
p161
aV06:24
p162
aV08:22
p163
aV10:19
p164
aV12:19
p165
aa.