(lp0
(lp1
VTrain Number
p2
aV790\u000aAM
p3
aV700\u000aAM
p4
aV702\u000aAM
p5
aV704\u000aAM
p6
aV706\u000aAM
p7
aV740\u000aAM
p8
aV708\u000aAM
p9
aV742\u000aAM
p10
aV710\u000aAM
p11
aV712\u000aAM
p12
aV714\u000aPM
p13
aV716\u000aPM
p14
aV718\u000aPM
p15
aV720\u000aPM
p16
aV744\u000aPM
p17
aV722\u000aPM
p18
aV746\u000aPM
p19
aV724\u000aPM
p20
aV726\u000aPM
p21
aV728\u000aPM
p22
aV730\u000aPM
p23
aV732\u000aPM
p24
aa(lp25
VForge Park / 495
p26
aV04:55
p27
aV05:30
p28
aV06:05
p29
aV06:35
p30
aV07:08
p31
aV 
p32
aV07:50
p33
ag32
aV09:22
p34
aV10:55
p35
aV12:20
p36
aV01:35
p37
aV02:57
p38
aV04:01
p39
ag32
aV05:03
p40
ag32
aV07:05
p41
aV07:43
p42
aV09:01
p43
aV10:25
p44
aV11:46
p45
aa(lp46
VFranklin
p47
aV05:02
p48
aV05:37
p49
aV06:12
p50
aV06:42
p51
aV07:15
p52
ag32
aV07:57
p53
ag32
aV09:29
p54
aV11:02
p55
aV12:27
p56
aV01:42
p57
aV03:04
p58
aV04:08
p59
ag32
aV05:10
p60
ag32
aV07:24
p61
aV07:50
p62
aV09:08
p63
aV10:32
p64
aV11:53
p65
aa(lp66
VNorfolk
p67
aV05:08
p68
aV05:44
p69
aV06:19
p70
aV06:49
p71
aV07:22
p72
ag32
aV08:04
p73
ag32
aV09:36
p74
aV11:09
p75
aV12:34
p76
aV01:49
p77
aV03:11
p78
aV04:15
p79
ag32
aV05:17
p80
ag32
aV07:31
p81
aV07:57
p82
aV09:15
p83
aV10:39
p84
aV12:00
p85
aa(lp86
VWalpole
p87
aV05:15
p88
aV05:50
p89
aV06:26
p90
aV06:55
p91
aV07:30
p92
aV07:40
p93
aV08:11
p94
ag32
aV09:43
p95
aV11:16
p96
aV12:41
p97
aV01:56
p98
aV03:26
p99
aV04:30
p100
ag32
aV05:31
p101
aV06:08
p102
aV07:38
p103
aV08:04
p104
aV09:22
p105
aV10:46
p106
aV12:07
p107
aa(lp108
VPlimptonville
p109
ag32
ag32
ag32
aV06:58F
p110
ag32
ag32
ag32
ag32
ag32
ag32
ag32
ag32
ag32
ag32
ag32
ag32
ag32
ag32
ag32
ag32
ag32
ag32
aa(lp111
VWindsor Gardens
p112
aV05:19
p113
aV05:54
p114
aV06:30
p115
aV07:01
p116
aV07:34
p117
aV07:44
p118
aV08:15
p119
ag32
aV09:47
p120
aV11:20
p121
aV12:45
p122
aV02:01
p123
aV03:31
p124
ag32
ag32
ag32
aV06:11F
p125
ag32
ag32
ag32
ag32
ag32
aa(lp126
VNorwood Central
p127
aV05:23
p128
aV05:58
p129
aV06:35
p130
aV07:06
p131
aV07:39
p132
aV07:49
p133
aV08:20
p134
aV08:31
p135
aV09:51
p136
aV11:24
p137
aV12:49
p138
aV02:05
p139
aV03:35
p140
aV04:37
p141
aV05:05
p142
aV05:38
p143
aV06:15
p144
aV07:45
p145
aV08:11
p146
aV09:29
p147
aV10:53
p148
aV12:14F
p149
aa(lp150
VNorwood Depot
p151
aV05:26
p152
ag32
aV06:38
p153
aV07:09
p154
ag32
aV07:52
p155
ag32
aV08:34
p156
aV09:53
p157
aV11:26
p158
aV12:51
p159
aV02:07
p160
aV03:37
p161
aV04:39
p162
ag32
ag32
aV06:17
p163
aV07:47
p164
aV08:13
p165
aV09:31
p166
aV10:55
p167
aV12:16F
p168
aa(lp169
VIslington
p170
aV05:29
p171
aV06:02
p172
aV06:42
p173
aV07:13
p174
ag32
aV07:56
p175
ag32
aV08:38
p176
aV09:56
p177
aV11:29
p178
aV12:54
p179
aV02:10
p180
aV03:40
p181
aV04:42
p182
ag32
ag32
aV06:20
p183
aV07:50
p184
aV08:16
p185
aV09:34
p186
aV10:57
p187
aV12:18F
p188
aa(lp189
VDedham Corp. Center
p190
aV05:32
p191
aV06:05
p192
aV06:45
p193
aV07:16
p194
aV07:45
p195
aV07:59
p196
aV08:26
p197
aV08:40
p198
aV09:59
p199
aV11:31
p200
aV12:56
p201
aV02:12
p202
aV03:42
p203
aV04:45
p204
ag32
aV05:43
p205
aV06:22
p206
aV07:52
p207
aV08:18
p208
aV09:36
p209
aV11:00
p210
aV12:21F
p211
aa(lp212
VEndicott
p213
aV05:35
p214
aV06:08
p215
aV06:48
p216
aV07:20
p217
ag32
aV08:03
p218
aV08:29
p219
aV08:43
p220
aV10:02
p221
aV11:34
p222
aV12:59
p223
aV02:15
p224
ag32
aV04:50
p225
ag32
aV05:47
p226
aV06:25
p227
aV07:55
p228
aV08:21
p229
aV09:39
p230
aV11:03
p231
aV12:24F
p232
aa(lp233
VReadville
p234
aVVIA
p235
aV06:12
p236
aV06:53
p237
aV07:25
p238
ag32
aV08:08
p239
aV08:33
p240
aV08:48
p241
aV10:06
p242
aV11:38
p243
aV01:03
p244
aV02:19
p245
ag32
ag32
ag32
aV05:50
p246
aVVIA
p247
ag32
aV08:25
p248
aV09:43
p249
aV11:07
p250
aV12:28F
p251
aa(lp252
VRuggles
p253
aVFAIR
p254
ag32
aV07:03
p255
aV07:35
p256
aV08:00
p257
ag32
aV08:44
p258
aV08:59
p259
aV10:16
p260
ag32
ag32
ag32
ag32
ag32
ag32
ag32
aVFAIR
p261
aV08:07
p262
aV08:35
p263
aV09:53
p264
ag32
ag32
aa(lp265
VBack Bay
p266
aVLINE
p267
aV06:24
p268
aV07:07
p269
aV07:39
p270
aV08:04
p271
aV08:20
p272
aV08:48
p273
aV09:03
p274
aV10:20
p275
aV11:49
p276
aV01:14
p277
aV02:30
p278
aV04:02
p279
aV05:10
p280
aV05:25
p281
aV06:11
p282
aVLINE
p283
aV08:11
p284
aV08:39
p285
aV09:57
p286
aV11:19
p287
aV12:39
p288
aa(lp289
VSouth Station
p290
aV06:09
p291
aV06:30
p292
aV07:13
p293
aV07:45
p294
aV08:10
p295
aV08:26
p296
aV08:54
p297
aV09:09
p298
aV10:25
p299
aV11:54
p300
aV01:19
p301
aV02:35
p302
aV04:07
p303
aV05:15
p304
aV05:30
p305
aV06:16
p306
aV07:00
p307
aV08:16
p308
aV08:44
p309
aV10:02
p310
aV11:24
p311
aV12:44
p312
aa.