(lp0
(lp1
VTrain Number
p2
aV701\u000aAM
p3
aV741\u000aAM
p4
aV703\u000aAM
p5
aV705\u000aAM
p6
aV707\u000aAM
p7
aV709\u000aPM
p8
aV711\u000aPM
p9
aV713\u000aPM
p10
aV715\u000aPM
p11
aV743\u000aPM
p12
aV717\u000aPM
p13
aV745\u000aPM
p14
aV719\u000aPM
p15
aV721\u000aPM
p16
aV723\u000aPM
p17
aV725\u000aPM
p18
aV727\u000aPM
p19
aV729\u000aPM
p20
aV731\u000aPM
p21
aa(lp22
VSouth Station
p23
aV03:50
p24
aV06:45
p25
aV08:04
p26
aV09:40
p27
aV11:00
p28
aV12:20
p29
aV01:35
p30
aV02:40
p31
aV03:48
p32
aV04:15
p33
aV04:43
p34
aV05:02
p35
aV05:20
p36
aV05:45
p37
aV06:20
p38
aV07:45
p39
aV09:00
p40
aV10:30
p41
aV11:50
p42
aa(lp43
VBack Bay
p44
aV 
p45
aV06:50
p46
aV08:09
p47
aV09:45
p48
aV11:05
p49
aV12:25
p50
aV01:40
p51
aV02:45
p52
aV03:53
p53
aV04:20
p54
aV04:48
p55
aV05:07
p56
aV05:25
p57
aV05:50
p58
aV06:25
p59
aV07:50
p60
aV09:05
p61
aV10:35
p62
aV11:55
p63
aa(lp64
VRuggles
p65
ag45
ag45
aV08:13
p66
ag45
aV11:08
p67
aV12:28
p68
aV01:44
p69
aV02:49
p70
aV03:57
p71
aV04:24
p72
aV04:52
p73
aV05:11
p74
aV05:29
p75
aV05:54
p76
aV06:29
p77
aV07:54
p78
aV09:08
p79
aV10:38
p80
aV11:58
p81
aa(lp82
VHyde Park
p83
ag45
ag45
ag45
ag45
ag45
ag45
ag45
ag45
ag45
aV04:33
p84
ag45
aV05:20
p85
ag45
ag45
ag45
ag45
ag45
aV10:46
p86
ag45
aa(lp87
VReadville
p88
ag45
aV07:01
p89
ag45
aV09:56
p90
ag45
aV12:38
p91
aV01:53
p92
aV02:59
p93
ag45
aV04:37
p94
ag45
aV05:24
p95
ag45
ag45
aV06:38
p96
aV08:03
p97
aV09:18
p98
aV10:50
p99
aV12:08
p100
aa(lp101
VEndicott
p102
ag45
aV07:04F
p103
ag45
aV09:59
p104
aV11:19
p105
aV12:41
p106
aV01:57
p107
aV03:02
p108
ag45
aV04:40
p109
ag45
aV05:28
p110
ag45
aV06:08
p111
aV06:42
p112
aV08:06
p113
aV09:21
p114
aV10:53
p115
aV12:11
p116
aa(lp117
VDedham Corp. Center
p118
ag45
aV07:07F
p119
aV08:26
p120
aV10:02
p121
aV11:22
p122
aV12:44
p123
aV01:59
p124
aV03:05
p125
aV04:12
p126
aV04:43
p127
aV05:07
p128
aV05:32
p129
aV05:46
p130
aV06:11
p131
aV06:45
p132
aV08:09
p133
aV09:24
p134
aV10:56
p135
aV12:14
p136
aa(lp137
VIslington
p138
ag45
aV07:10F
p139
aV08:29F
p140
aV10:05
p141
aV11:25
p142
aV12:47
p143
aV02:02
p144
aV03:08
p145
ag45
aV04:46
p146
aV05:10
p147
aV05:35
p148
aV05:49
p149
ag45
aV06:48
p150
aV08:12
p151
aV09:27
p152
aV10:59
p153
aV12:17
p154
aa(lp155
VNorwood Depot
p156
ag45
aV07:13F
p157
aV08:32
p158
aV10:08
p159
aV11:28
p160
aV12:50
p161
aV02:05
p162
aV03:11
p163
ag45
aV04:49
p164
aV05:13
p165
aV05:39
p166
ag45
aV06:18
p167
aV06:52
p168
aV08:15
p169
aV09:30
p170
aV11:02
p171
aV12:20
p172
aa(lp173
VNorwood Central
p174
aV04:12
p175
aV07:16F
p176
aV08:35
p177
aV10:11
p178
aV11:31
p179
aV12:53
p180
aV02:08
p181
aV03:14
p182
aV04:17
p183
aV04:52
p184
aV05:17
p185
aV05:43
p186
aV05:54
p187
aV06:22
p188
aV06:56
p189
aV08:18
p190
aV09:33
p191
aV11:05
p192
aV12:23
p193
aa(lp194
VWindsor Gardens
p195
ag45
aV07:19F
p196
aV08:39
p197
aV10:15
p198
aV11:35
p199
aV12:57
p200
aV02:12
p201
aV03:18
p202
aV04:21
p203
ag45
aV05:21
p204
ag45
aV05:58
p205
aV06:26
p206
aV07:00
p207
aV08:22
p208
aV09:37
p209
aV11:08
p210
aV12:26
p211
aa(lp212
VPlimptonville
p213
ag45
ag45
ag45
ag45
ag45
ag45
ag45
ag45
ag45
ag45
ag45
aV05:50
p214
ag45
ag45
ag45
ag45
ag45
ag45
ag45
aa(lp215
VWalpole
p216
aV04:18
p217
aV07:23
p218
aV08:43
p219
aV10:19
p220
aV11:39
p221
aV01:01
p222
aV02:16
p223
aV03:22
p224
aV04:26
p225
ag45
aV05:27
p226
aV05:54
p227
aV06:04
p228
aV06:31
p229
aV07:05
p230
aV08:27
p231
aV09:42
p232
aV11:12
p233
aV12:31
p234
aa(lp235
VNorfolk
p236
ag45
ag45
aV08:49
p237
aV10:25
p238
aV11:45
p239
aV01:07
p240
aV02:22
p241
aV03:30
p242
aV04:34
p243
ag45
aV05:35
p244
ag45
aV06:10
p245
aV06:38
p246
aV07:12
p247
aV08:34
p248
aV09:49
p249
aV11:19
p250
aV12:38
p251
aa(lp252
VFranklin
p253
aV04:30
p254
ag45
aV08:56
p255
aV10:32
p256
aV11:52
p257
aV01:14
p258
aV02:29
p259
aV03:37
p260
aV04:41
p261
ag45
aV05:42
p262
ag45
aV06:17
p263
aV06:45
p264
aV07:19
p265
aV08:41
p266
aV09:56
p267
aV11:26
p268
aV12:45
p269
aa(lp270
VForge Park / 495
p271
aV04:40
p272
ag45
aV09:04
p273
aV10:40
p274
aV12:00
p275
aV01:22
p276
aV02:37
p277
aV03:45
p278
aV04:49
p279
ag45
aV05:50
p280
ag45
aV06:25
p281
aV06:52
p282
aV07:27
p283
aV08:49
p284
aV10:04
p285
aV11:34
p286
aV12:53
p287
aa.