(lp0
(lp1
VTrain Number
p2
aV2707\u000aAM
p3
aV2709\u000aPM
p4
aV2711\u000aPM
p5
aV2713\u000aPM
p6
aV2715\u000aPM
p7
aV2717\u000aPM
p8
aV2719\u000aPM
p9
aa(lp10
VSouth Station
p11
aV11:20
p12
aV01:20
p13
aV03:20
p14
aV05:20
p15
aV07:20
p16
aV09:20
p17
aV11:20
p18
aa(lp19
VBack Bay
p20
aV11:25
p21
aV01:25
p22
aV03:25
p23
aV05:25
p24
aV07:25
p25
aV09:25
p26
aV11:25
p27
aa(lp28
VRuggles
p29
aV11:28
p30
aV01:28
p31
aV03:28
p32
aV05:28
p33
aV07:28
p34
aV09:28
p35
aV11:28
p36
aa(lp37
VReadville
p38
aV11:38
p39
aV01:38
p40
aV03:38
p41
aV05:38
p42
aV07:38
p43
aV09:38
p44
aV11:38
p45
aa(lp46
VEndicott
p47
aV11:41
p48
aV01:41
p49
aV03:41
p50
aV05:41
p51
aV07:41
p52
aV09:41
p53
aV11:41
p54
aa(lp55
VDedham Corp. Center
p56
aV11:44
p57
aV01:45
p58
aV03:45
p59
aV05:45
p60
aV07:44
p61
aV09:44
p62
aV11:44
p63
aa(lp64
VIslington
p65
aV11:46
p66
aV01:47
p67
aV03:47
p68
aV05:47
p69
aV07:46
p70
aV09:46
p71
aV11:46
p72
aa(lp73
VNorwood Depot
p74
aV11:49
p75
aV01:50
p76
aV03:50
p77
aV05:50
p78
aV07:49
p79
aV09:49
p80
aV11:49
p81
aa(lp82
VNorwood Central
p83
aV11:51
p84
aV01:53
p85
aV03:53
p86
aV05:53
p87
aV07:52
p88
aV09:51
p89
aV11:51
p90
aa(lp91
VWindsor Gardens
p92
aV11:55
p93
aV01:57
p94
aV03:57
p95
aV05:57
p96
aV07:56
p97
aV09:55
p98
aV11:55
p99
aa(lp100
VWalpole
p101
aV11:59
p102
aV02:03
p103
aV04:03
p104
aV06:03
p105
aV08:01
p106
aV09:59
p107
aV11:59
p108
aa(lp109
VNorfolk
p110
aV12:05
p111
aV02:10
p112
aV04:10
p113
aV06:10
p114
aV08:07
p115
aV10:05
p116
aV12:05
p117
aa(lp118
VFranklin
p119
aV12:12
p120
aV02:17
p121
aV04:17
p122
aV06:17
p123
aV08:15
p124
aV10:12
p125
aV12:12
p126
aa(lp127
VForge Park / 495
p128
aV12:19
p129
aV02:24
p130
aV04:24
p131
aV06:24
p132
aV08:22
p133
aV10:19
p134
aV12:19
p135
aa.