(lp0
(lp1
VTrain Number
p2
aV1071\u000aAM
p3
aV1073\u000aAM
p4
aV1075\u000aAM
p5
aV1077\u000aPM
p6
aV1079\u000aPM
p7
aV1081\u000aPM
p8
aV1083\u000aPM
p9
aV1085\u000aPM
p10
aa(lp11
VSouth Station
p12
aV08:05
p13
aV09:45
p14
aV11:03
p15
aV12:55
p16
aV02:45
p17
aV05:10
p18
aV08:00
p19
aV10:55
p20
aa(lp21
VJFK/UMass
p22
aV08:12F
p23
aV09:51F
p24
aV11:09F
p25
aV01:01F
p26
aV02:51F
p27
aV05:16F
p28
aV08:06F
p29
aV11:01F
p30
aa(lp31
VQuincy Center
p32
aV08:19
p33
aV09:59
p34
aV11:17
p35
aV01:09
p36
aV02:59
p37
aV05:24
p38
aV08:14
p39
aV11:09
p40
aa(lp41
VWeymouth Landing/ East Braintree
p42
aV08:28
p43
aV10:08
p44
aV11:26
p45
aV01:18
p46
aV03:08
p47
aV05:33
p48
aV08:23
p49
aV11:18
p50
aa(lp51
VEast Weymouth
p52
aV08:33
p53
aV10:14
p54
aV11:32
p55
aV01:24
p56
aV03:13
p57
aV05:39
p58
aV08:29
p59
aV11:24
p60
aa(lp61
VWest Hingham
p62
aV08:37
p63
aV10:18
p64
aV11:36
p65
aV01:28
p66
aV03:17
p67
aV05:43
p68
aV08:33
p69
aV11:28
p70
aa(lp71
VNantasket Junction
p72
aV08:42
p73
aV10:22
p74
aV11:41
p75
aV01:33
p76
aV03:22
p77
aV05:48
p78
aV08:38
p79
aV11:33
p80
aa(lp81
VCohasset
p82
aV08:45
p83
aV10:25
p84
aV11:44
p85
aV01:36
p86
aV03:25
p87
aV05:51
p88
aV08:41
p89
aV11:37
p90
aa(lp91
VNorth Scituate
p92
aV08:53
p93
aV10:33
p94
aV11:52
p95
aV01:44
p96
aV03:33
p97
aV05:59
p98
aV08:49
p99
aV11:45
p100
aa(lp101
VGreenbush
p102
aV09:02
p103
aV10:42
p104
aV12:02
p105
aV01:54
p106
aV03:42
p107
aV06:08
p108
aV08:58
p109
aV11:54
p110
aa.