(lp0
(lp1
VTrain Number
p2
aV1070\u000aAM
p3
aV1072\u000aAM
p4
aV1074\u000aAM
p5
aV1076\u000aPM
p6
aV1078\u000aPM
p7
aV1080\u000aPM
p8
aV1082\u000aPM
p9
aV1084\u000aPM
p10
aa(lp11
VGreenbush
p12
aV07:15
p13
aV09:30
p14
aV11:08
p15
aV12:20
p16
aV02:10
p17
aV03:55
p18
aV06:30
p19
aV09:30
p20
aa(lp21
VNorth Scituate
p22
aV07:22
p23
aV09:37
p24
aV11:15
p25
aV12:27
p26
aV02:17
p27
aV04:02
p28
aV06:37
p29
aV09:37
p30
aa(lp31
VCohasset
p32
aV07:29
p33
aV09:44
p34
aV11:22
p35
aV12:34
p36
aV02:23
p37
aV04:09
p38
aV06:44
p39
aV09:44
p40
aa(lp41
VNantasket Junction
p42
aV07:32
p43
aV09:47
p44
aV11:26
p45
aV12:37
p46
aV02:26
p47
aV04:12
p48
aV06:47
p49
aV09:47
p50
aa(lp51
VWest Hingham
p52
aV07:37
p53
aV09:52
p54
aV11:31
p55
aV12:42
p56
aV02:31
p57
aV04:17
p58
aV06:52
p59
aV09:52
p60
aa(lp61
VEast Weymouth
p62
aV07:41
p63
aV09:56
p64
aV11:38
p65
aV12:46
p66
aV02:35
p67
aV04:21
p68
aV06:56
p69
aV09:56
p70
aa(lp71
VWeymouth Landing/ East Braintree
p72
aV07:47
p73
aV10:02
p74
aV11:44
p75
aV12:52
p76
aV02:41
p77
aV04:27
p78
aV07:02
p79
aV10:02
p80
aa(lp81
VQuincy Center
p82
aV07:56
p83
aV10:12
p84
aV11:53
p85
aV01:01
p86
aV02:50
p87
aV04:36
p88
aV07:11
p89
aV10:11
p90
aa(lp91
VJFK/UMass
p92
aV08:04
p93
aV10:20
p94
aV12:01
p95
aV01:09
p96
aV02:59
p97
aV04:44
p98
aV07:19
p99
aV10:19
p100
aa(lp101
VSouth Station
p102
aV08:12
p103
aV10:28
p104
aV12:07
p105
aV01:18
p106
aV03:07
p107
aV04:53
p108
aV07:27
p109
aV10:26
p110
aa.