(lp0
(lp1
VTrain Number
p2
aV071\u000aAM
p3
aV073\u000aAM
p4
aV075\u000aAM
p5
aV077\u000aPM
p6
aV079\u000aPM
p7
aV081\u000aPM
p8
aV083\u000aPM
p9
aV085\u000aPM
p10
aV087\u000aPM
p11
aV089\u000aPM
p12
aV091\u000aPM
p13
aV093\u000aPM
p14
aa(lp15
VSouth Station
p16
aV06:54
p17
aV09:25
p18
aV10:30
p19
aV12:41
p20
aV02:27
p21
aV04:02
p22
aV04:52
p23
aV05:20
p24
aV05:45
p25
aV06:38
p26
aV08:25
p27
aV10:00
p28
aa(lp29
VJFK/UMass
p30
aV 
p31
ag31
ag31
ag31
ag31
aV04:08
p32
ag31
aV05:26
p33
ag31
ag31
ag31
ag31
aa(lp34
VQuincy Center
p35
ag31
aV09:38
p36
aV10:43
p37
aV12:54
p38
aV02:40
p39
ag31
aV05:05
p40
ag31
aV05:58
p41
aV06:51
p42
aV08:38
p43
aV10:13
p44
aa(lp45
VWeymouth Landing/ East Braintree
p46
aV07:17
p47
aV09:47
p48
aV10:52
p49
aV01:03
p50
aV02:49
p51
aV04:24
p52
aV05:14
p53
aV05:42
p54
aV06:07
p55
aV07:00
p56
aV08:47
p57
aV10:22
p58
aa(lp59
VEast Weymouth
p60
aV07:23
p61
aV09:53
p62
aV10:58
p63
aV01:08
p64
aV02:55
p65
aV04:30
p66
aV05:20
p67
aV05:48
p68
aV06:13
p69
aV07:06
p70
aV08:53
p71
aV10:28
p72
aa(lp73
VWest Hingham
p74
aV07:30
p75
aV09:57
p76
aV11:03
p77
aV01:12
p78
aV02:59
p79
aV04:34
p80
aV05:24
p81
aV05:52
p82
aV06:17
p83
aV07:10
p84
aV08:56
p85
aV10:32
p86
aa(lp87
VNantasket Junction
p88
aV07:34
p89
aV10:02
p90
aV11:07
p91
aV01:17
p92
aV03:04
p93
aV04:39
p94
aV05:29
p95
aV05:57
p96
aV06:22
p97
aV07:15
p98
aV09:00
p99
aV10:37
p100
aa(lp101
VCohasset
p102
aV07:37
p103
aV10:05
p104
aV11:10
p105
aV01:20
p106
aV03:08
p107
aV04:43
p108
aV05:33
p109
aV06:00
p110
aV06:25
p111
aV07:19
p112
aV09:03
p113
aV10:40
p114
aa(lp115
VNorth Scituate
p116
aV07:45
p117
aV10:13
p118
aV11:18
p119
aV01:28
p120
aV03:16
p121
aV04:51
p122
aV05:41
p123
aV06:08
p124
aV06:33
p125
aV07:27
p126
aV09:12
p127
aV10:48
p128
aa(lp129
VGreenbush
p130
aV07:55
p131
aV10:23
p132
aV11:28
p133
aV01:39
p134
aV03:25
p135
aV04:59
p136
aV05:51
p137
aV06:18
p138
aV06:43
p139
aV07:36
p140
aV09:22
p141
aV10:57
p142
aa.