(lp0
(lp1
VTrain Number
p2
aV070\u000aAM
p3
aV072\u000aAM
p4
aV074\u000aAM
p5
aV076\u000aAM
p6
aV078\u000aAM
p7
aV080\u000aAM
p8
aV082\u000aAM
p9
aV084\u000aPM
p10
aV086\u000aPM
p11
aV088\u000aPM
p12
aV090\u000aPM
p13
aV092\u000aPM
p14
aa(lp15
VGreenbush
p16
aV05:40
p17
aV06:37
p18
aV07:03
p19
aV07:50
p20
aV08:50
p21
aV10:35
p22
aV11:50
p23
aV02:11
p24
aV03:47
p25
aV05:20
p26
aV07:05
p27
aV08:10
p28
aa(lp29
VNorth Scituate
p30
aV05:47
p31
aV06:44
p32
aV07:10
p33
aV07:57
p34
aV08:57
p35
aV10:42
p36
aV11:57
p37
aV02:18
p38
aV03:54
p39
aV05:27
p40
aV07:12
p41
aV08:17
p42
aa(lp43
VCohasset
p44
aV05:54
p45
aV06:51
p46
aV07:17
p47
aV08:04
p48
aV09:04
p49
aV10:48
p50
aV12:04
p51
aV02:25
p52
aV04:01
p53
aV05:38
p54
aV07:22
p55
aV08:23
p56
aa(lp57
VNantasket Junction
p58
aV05:58
p59
aV06:55
p60
aV07:21
p61
aV08:08
p62
aV09:08
p63
aV10:51
p64
aV12:08
p65
aV02:28
p66
aV04:04
p67
aV05:42
p68
aV07:26
p69
aV08:26
p70
aa(lp71
VWest Hingham
p72
aV06:03
p73
aV07:00
p74
aV07:26
p75
aV08:13
p76
aV09:13
p77
aV10:56
p78
aV12:13
p79
aV02:33
p80
aV04:09
p81
aV05:47
p82
aV07:31
p83
aV08:31
p84
aa(lp85
VEast Weymouth
p86
aV06:07
p87
aV07:04
p88
aV07:30
p89
aV08:17
p90
aV09:17
p91
aV11:03
p92
aV12:17
p93
aV02:37
p94
aV04:12
p95
aV05:53
p96
aV07:35
p97
aV08:34
p98
aa(lp99
VWeymouth Landing/ East Braintree
p100
aV06:13
p101
aV07:10
p102
aV07:36
p103
aV08:23
p104
aV09:23
p105
aV11:09
p106
aV12:23
p107
aV02:43
p108
aV04:18
p109
aV05:59
p110
aV07:41
p111
aV08:40
p112
aa(lp113
VQuincy Center
p114
aV06:22
p115
aV 
p116
aV07:46
p117
aV08:32
p118
aV09:32
p119
aV11:18
p120
aV12:32
p121
aV02:52
p122
aV04:28
p123
ag116
aV07:53
p124
aV08:49
p125
aa(lp126
VJFK/UMass
p127
aV06:30
p128
aV07:28
p129
ag116
ag116
ag116
ag116
ag116
ag116
ag116
ag116
ag116
ag116
aa(lp130
VSouth Station
p131
aV06:38
p132
aV07:36
p133
aV08:03
p134
aV08:49
p135
aV09:49
p136
aV11:34
p137
aV12:48
p138
aV03:09
p139
aV04:46
p140
aV06:34
p141
aV08:07
p142
aV09:07
p143
aa.