(lp0
(lp1
VTrain Number
p2
aV1200\u000aAM
p3
aV1202\u000aAM
p4
aV1204\u000aPM
p5
aV1206\u000aPM
p6
aV1208\u000aPM
p7
aV1210\u000aPM
p8
aa(lp9
VHaverhill
p10
aV07:15
p11
aV10:15
p12
aV01:15
p13
aV04:15
p14
aV07:20
p15
aV10:10
p16
aa(lp17
VBradford
p18
aV07:18
p19
aV10:18
p20
aV01:18
p21
aV04:18
p22
aV07:23
p23
aV10:13
p24
aa(lp25
VLawrence
p26
aV07:27
p27
aV10:27
p28
aV01:27
p29
aV04:27
p30
aV07:32
p31
aV10:22
p32
aa(lp33
VAndover
p34
aV07:32
p35
aV10:32
p36
aV01:33
p37
aV04:32
p38
aV07:38
p39
aV10:28
p40
aa(lp41
VBallardvale
p42
aV07:37F
p43
aV10:37F
p44
aV01:37F
p45
aV04:37F
p46
aV07:42F
p47
aV10:32F
p48
aa(lp49
VNorth Wilmington
p50
aV07:44F
p51
aV10:44F
p52
aV01:44F
p53
aV04:44F
p54
aV07:49F
p55
aV10:39F
p56
aa(lp57
VReading
p58
aV07:50
p59
aV10:50
p60
aV01:50
p61
aV04:50
p62
aV07:55
p63
aV10:45
p64
aa(lp65
VWakefield
p66
aV07:55
p67
aV10:55
p68
aV01:55
p69
aV04:55
p70
aV08:00
p71
aV10:50
p72
aa(lp73
VGreenwood
p74
aV07:59F
p75
aV10:59F
p76
aV01:59F
p77
aV04:59F
p78
aV08:04F
p79
aV10:54F
p80
aa(lp81
VMelrose Highlands
p82
aV08:02
p83
aV11:02
p84
aV02:02
p85
aV05:02
p86
aV08:07
p87
aV10:57
p88
aa(lp89
VMelrose Cedar Park
p90
aV08:04F
p91
aV11:04F
p92
aV02:04F
p93
aV05:04F
p94
aV08:09F
p95
aV10:59F
p96
aa(lp97
VWyoming Hill
p98
aV08:06F
p99
aV11:06F
p100
aV02:06F
p101
aV05:06F
p102
aV08:11F
p103
aV11:01F
p104
aa(lp105
VMalden Center
p106
aV08:10
p107
aV11:10
p108
aV02:10
p109
aV05:10
p110
aV08:15
p111
aV11:05
p112
aa(lp113
VNorth Station
p114
aV08:21
p115
aV11:21
p116
aV02:21
p117
aV05:21
p118
aV08:26
p119
aV11:16
p120
aa.