(lp0
(lp1
VTrain Number
p2
aV2201\u000aAM
p3
aV2203\u000aAM
p4
aV2205\u000aPM
p5
aV2207\u000aPM
p6
aV2209\u000aPM
p7
aV2211\u000aPM
p8
aa(lp9
VNorth Station
p10
aV08:40
p11
aV11:25
p12
aV02:45
p13
aV05:50
p14
aV08:40
p15
aV11:30
p16
aa(lp17
VMalden Center
p18
aV08:50
p19
aV11:35
p20
aV02:55
p21
aV06:00
p22
aV08:50
p23
aV11:40
p24
aa(lp25
VWyoming Hill
p26
aV08:54F
p27
aV11:39F
p28
aV02:59F
p29
aV06:04F
p30
aV08:54F
p31
aV11:44F
p32
aa(lp33
VMelrose Cedar Park
p34
aV08:56F
p35
aV11:41F
p36
aV03:01F
p37
aV06:06F
p38
aV08:56F
p39
aV11:46F
p40
aa(lp41
VMelrose Highlands
p42
aV08:59
p43
aV11:44
p44
aV03:04
p45
aV06:09
p46
aV08:59
p47
aV11:49
p48
aa(lp49
VGreenwood
p50
aV09:02F
p51
aV11:47F
p52
aV03:07F
p53
aV06:12F
p54
aV09:02F
p55
aV11:52F
p56
aa(lp57
VWakefield
p58
aV09:05
p59
aV11:50
p60
aV03:10
p61
aV06:15
p62
aV09:05
p63
aV11:55
p64
aa(lp65
VReading
p66
aV09:11
p67
aV11:56
p68
aV03:16
p69
aV06:21
p70
aV09:11
p71
aV12:01
p72
aa(lp73
VNorth Wilmington
p74
aV09:17F
p75
aV12:02F
p76
aV03:22F
p77
aV06:27F
p78
aV09:17F
p79
aV12:07F
p80
aa(lp81
VBallardvale
p82
aV09:23F
p83
aV12:08F
p84
aV03:28F
p85
aV06:33F
p86
aV09:23F
p87
aV12:13F
p88
aa(lp89
VAndover
p90
aV09:28
p91
aV12:13
p92
aV03:33
p93
aV06:38
p94
aV09:28
p95
aV12:18
p96
aa(lp97
VLawrence
p98
aV09:35
p99
aV12:20
p100
aV03:40
p101
aV06:45
p102
aV09:35
p103
aV12:25
p104
aa(lp105
VBradford
p106
aV09:44
p107
aV12:29
p108
aV03:49
p109
aV06:54
p110
aV09:44
p111
aV12:34
p112
aa(lp113
VHaverhill
p114
aV09:47
p115
aV12:32
p116
aV03:52
p117
aV06:57
p118
aV09:47
p119
aV12:37
p120
aa.