(lp0
(lp1
VTrain Number
p2
aV285\u000aAM
p3
aV287\u000aAM
p4
aV201\u000aAM
p5
aV289\u000aAM
p6
aV203\u000aAM
p7
aV205\u000aAM
p8
aV207\u000aPM
p9
aV209\u000aPM
p10
aV211\u000aPM
p11
aV291\u000aPM
p12
aV213\u000aPM
p13
aV293\u000aPM
p14
aV215\u000aPM
p15
aV217\u000aPM
p16
aV295\u000aPM
p17
aV219\u000aPM
p18
aV221\u000aPM
p19
aV297\u000aPM
p20
aV223\u000aPM
p21
aV225\u000aPM
p22
aV227\u000aPM
p23
aV229\u000aAM
p24
aa(lp25
VNorth Station
p26
aV06:43
p27
aV07:10
p28
aV07:35
p29
aV07:55
p30
aV09:15
p31
aV10:55
p32
aV12:20
p33
aV02:02
p34
aV03:15
p35
aV03:50
p36
aV04:30
p37
aV04:48
p38
aV05:15
p39
aV05:35
p40
aV06:05
p41
aV06:25
p42
aV06:55
p43
aV07:20
p44
aV07:40
p45
aV09:20
p46
aV11:00
p47
aV12:10
p48
aa(lp49
VMalden Center
p50
aV06:54F
p51
aV07:21F
p52
aV07:45F
p53
aV 
p54
aV09:26F
p55
aV11:06F
p56
aV12:31F
p57
aV02:13F
p58
aV03:26
p59
aV04:01
p60
aV04:41
p61
aV04:59
p62
aV05:26
p63
aV05:46
p64
aV06:16
p65
aV06:36
p66
ag54
aV07:31F
p67
aV07:51F
p68
aV09:31F
p69
aV11:11F
p70
aV12:21F
p71
aa(lp72
VWyoming Hill
p73
aV06:57F
p74
aV07:24F
p75
aV07:48F
p76
ag54
aV09:29F
p77
aV11:09F
p78
aV12:34F
p79
aV02:16F
p80
aV03:30
p81
aV04:05
p82
aV04:45
p83
aV05:03
p84
ag54
aV05:50
p85
aV06:20
p86
aV06:40
p87
ag54
aV07:34F
p88
aV07:54F
p89
aV09:34F
p90
aV11:14F
p91
aV12:24F
p92
aa(lp93
VMelrose Cedar Park
p94
aV06:59F
p95
aV07:26F
p96
aV07:50F
p97
ag54
aV09:31F
p98
aV11:11F
p99
aV12:36F
p100
aV02:18F
p101
aV03:32
p102
aV04:07
p103
aV04:47
p104
aV05:05
p105
ag54
aV05:52
p106
aV06:22
p107
aV06:42
p108
ag54
aV07:36F
p109
aV07:56F
p110
aV09:36F
p111
aV11:16F
p112
aV12:26F
p113
aa(lp114
VMelrose Highlands
p115
aV07:02F
p116
aV07:29F
p117
aV07:53F
p118
ag54
aV09:34F
p119
aV11:14F
p120
aV12:39F
p121
aV02:21F
p122
aV03:36
p123
aV04:11
p124
aV04:51
p125
aV05:09
p126
ag54
aV05:56
p127
aV06:26
p128
aV06:46
p129
aVVIA
p130
aV07:39F
p131
aV07:59F
p132
aV09:39F
p133
aV11:19F
p134
aV12:29F
p135
aa(lp136
VGreenwood
p137
aV07:05F
p138
aV07:32F
p139
aV07:56F
p140
ag54
aV09:37F
p141
aV11:17F
p142
aV12:42F
p143
aV02:24F
p144
aV03:39
p145
aV04:14
p146
aV04:54
p147
aV05:12
p148
ag54
aV05:59
p149
aV06:29
p150
aV06:49
p151
aVLOW
p152
aV07:42F
p153
aV08:02F
p154
aV09:42F
p155
aV11:22F
p156
aV12:32F
p157
aa(lp158
VWakefield
p159
aV07:09F
p160
aV07:36F
p161
aV08:00F
p162
ag54
aV09:41F
p163
aV11:21F
p164
aV12:46F
p165
aV02:28F
p166
aV03:43
p167
aV04:18
p168
aV04:58
p169
aV05:16
p170
aV05:36
p171
aV06:03
p172
aV06:33
p173
aV06:53
p174
ag54
aV07:46F
p175
aV08:06F
p176
aV09:46F
p177
aV11:26F
p178
aV12:36F
p179
aa(lp180
VReading
p181
aV07:15
p182
aV07:42
p183
aV08:06
p184
aV08:17
p185
aV09:47
p186
aV11:27
p187
aV12:52
p188
aV02:34
p189
aV03:49
p190
aV04:24
p191
aV05:04
p192
aV05:22
p193
aV05:42
p194
aV06:09
p195
aV06:39
p196
aV06:59
p197
ag54
aV07:52
p198
aV08:12
p199
aV09:52
p200
aV11:32
p201
aV12:42
p202
aa(lp203
VNorth Wilmington
p204
ag54
ag54
aV08:12
p205
ag54
aV09:53F
p206
aV11:33F
p207
aV12:58F
p208
aV02:40F
p209
aV03:56
p210
ag54
aV05:11
p211
ag54
aV05:49
p212
aV06:16
p213
ag54
aV07:06
p214
ag54
ag54
aV08:18F
p215
aV09:58F
p216
aV11:38F
p217
aV12:48F
p218
aa(lp219
VBallardvale
p220
ag54
ag54
aV08:19
p221
ag54
aV10:00F
p222
aV11:40F
p223
aV01:05F
p224
aV02:47F
p225
aV04:03
p226
ag54
aV05:18
p227
ag54
aV05:56
p228
aV06:23
p229
ag54
aV07:13
p230
aV07:35
p231
ag54
aV08:25F
p232
aV10:05F
p233
aV11:45F
p234
aV12:55F
p235
aa(lp236
VAndover
p237
ag54
ag54
aV08:24
p238
ag54
aV10:05F
p239
aV11:45F
p240
aV01:10F
p241
aV02:52F
p242
aV04:09
p243
ag54
aV05:24
p244
ag54
aV06:02
p245
aV06:29
p246
ag54
aV07:19
p247
aV07:41
p248
ag54
aV08:30F
p249
aV10:10F
p250
aV11:50F
p251
aV01:00F
p252
aa(lp253
VLawrence
p254
ag54
ag54
aV08:31
p255
ag54
aV10:12
p256
aV11:52
p257
aV01:17
p258
aV02:59
p259
aV04:15
p260
ag54
aV05:30
p261
ag54
aV06:08
p262
aV06:35
p263
ag54
aV07:25
p264
aV07:47
p265
ag54
aV08:37
p266
aV10:17
p267
aV11:57
p268
aV01:07
p269
aa(lp270
VBradford
p271
ag54
ag54
aV08:40
p272
ag54
aV10:21
p273
aV12:01
p274
aV01:40
p275
aV03:10
p276
aV04:24
p277
ag54
aV05:50
p278
ag54
aV06:18
p279
aV06:45
p280
ag54
aV07:35
p281
aV08:07
p282
ag54
aV08:46
p283
aV10:26
p284
aV12:06
p285
aV01:16
p286
aa(lp287
VHaverhill
p288
ag54
ag54
aV08:42
p289
ag54
aV10:23
p290
aV12:03
p291
aV01:50
p292
aV03:12
p293
aV04:27
p294
ag54
aV06:00
p295
ag54
aV06:21
p296
aV06:48
p297
ag54
aV07:38
p298
aV08:17
p299
ag54
aV08:48
p300
aV10:28
p301
aV12:08
p302
aV01:18
p303
aa.