(lp0
(lp1
VTrain Number
p2
aV200\u000aAM
p3
aV202\u000aAM
p4
aV204\u000aAM
p5
aV206\u000aAM
p6
aV286\u000aAM
p7
aV288\u000aAM
p8
aV208\u000aAM
p9
aV290\u000aAM
p10
aV210\u000aAM
p11
aV212\u000aAM
p12
aV214\u000aPM
p13
aV216\u000aPM
p14
aV218\u000aPM
p15
aV292\u000aPM
p16
aV220\u000aPM
p17
aV294\u000aPM
p18
aV296\u000aPM
p19
aV222\u000aPM
p20
aV298\u000aPM
p21
aV224\u000aPM
p22
aV226\u000aPM
p23
aV228\u000aPM
p24
aa(lp25
VHaverhill
p26
aV05:05
p27
aV05:40
p28
aV06:10
p29
aV06:40
p30
aV 
p31
ag31
aV07:35
p32
ag31
aV09:05
p33
aV10:44
p34
aV12:25
p35
aV01:35
p36
aV03:30
p37
ag31
aV04:45
p38
ag31
ag31
aV06:09
p39
ag31
aV07:45
p40
aV09:10
p41
aV10:50
p42
aa(lp43
VBradford
p44
aV05:07
p45
aV05:42
p46
aV06:12
p47
aV06:42
p48
ag31
ag31
aV07:37
p49
ag31
aV09:07F
p50
aV10:46F
p51
aV12:27F
p52
aV01:45
p53
aV03:32F
p54
ag31
aV04:47F
p55
ag31
ag31
aV06:19
p56
ag31
aV07:47F
p57
aV09:12F
p58
aV10:52F
p59
aa(lp60
VLawrence
p61
aV05:16
p62
aV05:51
p63
aV06:21
p64
aV06:51
p65
ag31
ag31
aV07:46
p66
ag31
aV09:15
p67
aV10:54
p68
aV12:35
p69
aV02:00
p70
aV03:40
p71
ag31
aV04:55
p72
ag31
ag31
aV06:39
p73
ag31
aV07:55
p74
aV09:20
p75
aV11:00
p76
aa(lp77
VAndover
p78
aV05:23
p79
aV05:58
p80
aV06:28
p81
aV06:58
p82
ag31
ag31
aV07:53
p83
ag31
aV09:22F
p84
aV11:01F
p85
aV12:42F
p86
aV02:07F
p87
aV03:47F
p88
ag31
aV05:02F
p89
ag31
ag31
aV06:46F
p90
ag31
aV08:02F
p91
aV09:27F
p92
aV11:07F
p93
aa(lp94
VBallardvale
p95
aV05:29
p96
aV06:04
p97
aV06:34
p98
aV07:04
p99
ag31
ag31
aV07:59
p100
ag31
aV09:27F
p101
aV11:06F
p102
aV12:47F
p103
aV02:12F
p104
aV03:52F
p105
ag31
aV05:07F
p106
ag31
ag31
aV06:51F
p107
ag31
aV08:07F
p108
aV09:32F
p109
aV11:12F
p110
aa(lp111
VNorth Wilmington
p112
aV05:36
p113
aV06:11
p114
aV06:41
p115
ag31
ag31
ag31
ag31
ag31
aV09:34F
p116
aV11:13F
p117
ag31
aV02:19F
p118
ag31
ag31
ag31
ag31
ag31
ag31
ag31
ag31
aV09:39F
p119
aV11:19F
p120
aa(lp121
VReading
p122
aV05:43
p123
aV06:18
p124
aV06:48
p125
ag31
aV07:30
p126
aV08:00
p127
ag31
aV08:30
p128
aV09:41
p129
aV11:20
p130
ag31
aV02:26
p131
ag31
aV04:50
p132
ag31
aV05:38
p133
aV06:55
p134
ag31
aV08:07
p135
ag31
aV09:46
p136
aV11:26
p137
aa(lp138
VWakefield
p139
aV05:49
p140
aV06:24
p141
aV06:54
p142
ag31
aV07:36
p143
aV08:06
p144
ag31
aV08:36
p145
aV09:46F
p146
aV11:25F
p147
ag31
aV02:31F
p148
ag31
aV04:55F
p149
ag31
aV05:43F
p150
aV07:00F
p151
ag31
aV08:12F
p152
ag31
aV09:51F
p153
aV11:31F
p154
aa(lp155
VGreenwood
p156
aV05:52
p157
aV06:27
p158
aV06:57
p159
ag31
aV07:39
p160
aV08:09
p161
ag31
aV08:39
p162
aV09:49F
p163
aV11:28F
p164
ag31
aV02:34F
p165
ag31
aV04:58F
p166
ag31
aV05:46F
p167
aV07:03F
p168
ag31
aV08:15F
p169
ag31
aV09:54F
p170
aV11:34F
p171
aa(lp172
VMelrose Highlands
p173
aV05:54
p174
aV06:29
p175
aV06:59
p176
ag31
aV07:41
p177
aV08:11
p178
ag31
aV08:41
p179
aV09:51F
p180
aV11:30F
p181
ag31
aV02:36F
p182
ag31
aV05:00F
p183
ag31
aV05:48F
p184
aV07:05F
p185
ag31
aV08:17F
p186
ag31
aV09:56F
p187
aV11:36F
p188
aa(lp189
VMelrose Cedar Park
p190
aV05:56
p191
aV06:31
p192
aV07:01
p193
ag31
aV07:43
p194
aV08:13
p195
ag31
aV08:43
p196
aV09:53F
p197
aV11:32F
p198
ag31
aV02:38F
p199
ag31
aV05:01F
p200
ag31
aV05:49F
p201
aV07:06F
p202
ag31
aV08:18F
p203
ag31
aV09:58F
p204
aV11:38F
p205
aa(lp206
VWyoming Hill
p207
aV05:58
p208
aV06:33
p209
aV07:03
p210
ag31
aV07:45
p211
aV08:15
p212
ag31
aV08:45
p213
aV09:55F
p214
aV11:34F
p215
ag31
aV02:40F
p216
ag31
aV05:03F
p217
ag31
aV05:51F
p218
aV07:08F
p219
ag31
aV08:20F
p220
ag31
aV10:00F
p221
aV11:40F
p222
aa(lp223
VMalden Center
p224
aV06:02
p225
aV06:37
p226
aV07:07
p227
ag31
aV07:51
p228
aV08:19
p229
ag31
aV08:49
p230
aV09:58
p231
aV11:37
p232
ag31
aV02:43
p233
ag31
aV05:06
p234
ag31
aV05:54
p235
aV07:11
p236
ag31
aV08:23
p237
ag31
aV10:03
p238
aV11:43
p239
aa(lp240
VNorth Station
p241
aV06:15
p242
aV06:50
p243
aV07:20
p244
aV07:38
p245
aV08:02
p246
aV08:30
p247
aV08:35
p248
aV09:00
p249
aV10:10
p250
aV11:49
p251
aV01:23
p252
aV02:55
p253
aV04:28
p254
aV05:17
p255
aV05:43
p256
aV06:05
p257
aV07:22
p258
aV07:25
p259
aV08:34
p260
aV08:38
p261
aV10:15
p262
aV11:55
p263
aa.