(lp0
(lp1
VTrain Number
p2
aV1032\u000aAM
p3
aV1034\u000aAM
p4
aV1052\u000aAM
p5
aV1036\u000aAM
p6
aV1054\u000aPM
p7
aV1038\u000aPM
p8
aV1056\u000aPM
p9
aV1040\u000aPM
p10
aa(lp11
VKingston
p12
aV07:00
p13
aV08:50
p14
aV 
p15
aV11:30
p16
ag15
aV03:35
p17
aV06:28
p18
aV09:37
p19
aa(lp20
VPlymouth
p21
ag15
ag15
aV09:37
p22
ag15
aV12:55
p23
ag15
aV06:54
p24
ag15
aa(lp25
VKingston
p26
ag15
ag15
aV10:05
p27
ag15
aV01:22
p28
ag15
ag15
ag15
aa(lp29
VHalifax
p30
aV07:10
p31
aV09:00
p32
aV10:15
p33
aV11:40
p34
aV01:32
p35
aV03:45
p36
aV07:04
p37
aV09:47
p38
aa(lp39
VHanson
p40
aV07:15
p41
aV09:05
p42
aV10:20
p43
aV11:45
p44
aV01:37
p45
aV03:50
p46
aV07:09
p47
aV09:52
p48
aa(lp49
VWhitman
p50
aV07:20
p51
aV09:12
p52
aV10:25
p53
aV11:50
p54
aV01:42
p55
aV03:55
p56
aV07:14
p57
aV09:57
p58
aa(lp59
VAbington
p60
aV07:24
p61
aV09:16
p62
aV10:29
p63
aV11:54
p64
aV01:46
p65
aV03:59
p66
aV07:18
p67
aV10:00
p68
aa(lp69
VSouth Weymouth
p70
aV07:29
p71
aV09:21
p72
aV10:37
p73
aV11:59
p74
aV01:51
p75
aV04:04
p76
aV07:23
p77
aV10:05
p78
aa(lp79
VBraintree
p80
aV07:37
p81
aV09:28
p82
aV10:44
p83
aV12:06
p84
aV01:58
p85
aV04:12
p86
aV07:30
p87
aV10:12
p88
aa(lp89
VQuincy Center
p90
aV07:43
p91
ag15
aV10:50
p92
ag15
aV02:04
p93
ag15
aV07:36
p94
aV10:18
p95
aa(lp96
VJFK/UMass
p97
aV07:51
p98
aV09:41
p99
aV10:57
p100
aV12:19
p101
aV02:11
p102
aV04:25
p103
aV07:43
p104
aV10:25
p105
aa(lp106
VSouth Station
p107
aV07:58
p108
aV09:49
p109
aV11:04
p110
aV12:26
p111
aV02:19
p112
aV04:32
p113
aV07:51
p114
aV10:33
p115
aa.