(lp0
(lp1
VTrain Number
p2
aV2051\u000aAM
p3
aV2033\u000aAM
p4
aV2053\u000aAM
p5
aV2035\u000aPM
p6
aV2037\u000aPM
p7
aV2055\u000aPM
p8
aV2039\u000aPM
p9
aV2041\u000aPM
p10
aa(lp11
VSouth Station
p12
aV08:30
p13
aV10:05
p14
aV11:47
p15
aV02:00
p16
aV04:10
p17
aV05:20
p18
aV08:20
p19
aV10:45
p20
aa(lp21
VJFK/UMass
p22
aV08:36F
p23
aV10:11F
p24
aV11:53F
p25
aV02:06F
p26
aV04:16F
p27
aV05:26F
p28
aV08:26F
p29
aV10:51F
p30
aa(lp31
VQuincy Center
p32
aV08:43F
p33
aV10:18F
p34
aV12:00F
p35
aV02:13F
p36
aV04:23F
p37
aV05:33F
p38
aV08:33F
p39
aV10:58F
p40
aa(lp41
VBraintree
p42
aV08:50
p43
aV10:25
p44
aV12:07
p45
aV02:19
p46
aV04:29
p47
aV05:40
p48
aV08:39
p49
aV11:04
p50
aa(lp51
VSouth Weymouth
p52
aV08:57
p53
aV10:32
p54
aV12:14
p55
aV02:26
p56
aV04:36
p57
aV05:47
p58
aV08:46
p59
aV11:11
p60
aa(lp61
VAbington
p62
aV09:02
p63
aV10:37
p64
aV12:19
p65
aV02:31
p66
aV04:41
p67
aV05:52
p68
aV08:51
p69
aV11:16
p70
aa(lp71
VWhitman
p72
aV09:06
p73
aV10:41
p74
aV12:23
p75
aV02:35
p76
aV04:45
p77
aV05:56
p78
aV08:55
p79
aV11:20
p80
aa(lp81
VHanson
p82
aV09:11
p83
aV10:46
p84
aV12:28
p85
aV02:40
p86
aV04:50
p87
aV06:01
p88
aV09:00
p89
aV11:25
p90
aa(lp91
VHalifax
p92
aV09:16
p93
aV10:51
p94
aV12:33
p95
aV02:45
p96
aV04:55
p97
aV06:06
p98
aV09:05
p99
aV11:30
p100
aa(lp101
VPlymouth
p102
aV09:27
p103
aV 
p104
aV12:45
p105
ag104
ag104
ag104
ag104
ag104
aa(lp106
VKingston
p107
aV09:55
p108
aV11:03
p109
aV01:12
p110
aV02:57
p111
aV05:08
p112
aV06:18
p113
aV09:17
p114
aV11:42
p115
aa(lp116
VPlymouth
p117
ag104
ag104
ag104
ag104
ag104
aV06:44
p118
ag104
ag104
aa.