(lp0
(lp1
VTrain Number
p2
aV032\u000aAM
p3
aV034\u000aAM
p4
aV036\u000aAM
p5
aV038\u000aAM
p6
aV040\u000aAM
p7
aV060\u000aAM
p8
aV062\u000aPM
p9
aV064\u000aPM
p10
aV048\u000aPM
p11
aV052\u000aPM
p12
aV066\u000aPM
p13
aV056\u000aPM
p14
aa(lp15
VKingston
p16
aV05:32
p17
aV06:19
p18
aV07:11
p19
aV07:37
p20
aV08:37
p21
aV10:05
p22
aV 
p23
aV01:35
p24
aV04:02
p25
aV06:27
p26
aV07:23
p27
aV08:53
p28
aa(lp29
VPlymouth
p30
ag23
ag23
ag23
ag23
ag23
aV10:48
p31
aV12:06
p32
aV02:28
p33
ag23
ag23
aV07:45
p34
ag23
aa(lp35
VHalifax
p36
aV05:42
p37
aV06:29
p38
aV07:21
p39
aV07:47
p40
aV08:47
p41
aV10:58
p42
aV12:16
p43
aV02:38
p44
aV04:12
p45
aV06:40
p46
aV07:55
p47
aV09:03
p48
aa(lp49
VHanson
p50
aV05:47
p51
aV06:34
p52
aV07:26
p53
aV07:52
p54
aV08:52
p55
aV11:03
p56
aV12:21
p57
aV02:43
p58
aV04:17
p59
aV06:45
p60
aV08:00
p61
aV09:08
p62
aa(lp63
VWhitman
p64
aV05:52
p65
aV06:39
p66
aV07:31
p67
aV07:57
p68
aV08:57
p69
aV11:08
p70
aV12:26
p71
aV02:48
p72
aV04:22
p73
aV06:55
p74
aV08:08
p75
aV09:13
p76
aa(lp77
VAbington
p78
aV05:56
p79
aV06:43
p80
aV07:35
p81
aV08:01
p82
aV09:01
p83
aV11:12
p84
aV12:30
p85
aV02:52
p86
aV04:26
p87
aV06:58
p88
aV08:12
p89
aV09:17
p90
aa(lp91
VSouth Weymouth
p92
aV06:01
p93
aV06:49
p94
aV07:42
p95
aV08:06
p96
aV09:06
p97
aV11:20
p98
aV12:37
p99
aV02:57
p100
aV04:31
p101
aV07:03
p102
aV08:17
p103
aV09:22
p104
aa(lp105
VBraintree
p106
ag23
aV06:57
p107
aV07:50
p108
aV08:14
p109
aV09:14
p110
aV11:27
p111
aV12:45
p112
aV03:05
p113
aV04:38
p114
aV07:11
p115
aV08:25
p116
aV09:29
p117
aa(lp118
VJFK/UMass
p119
aV06:21
p120
ag23
aV08:03
p121
aV08:28
p122
aV09:27
p123
ag23
aV12:58
p124
ag23
ag23
ag23
ag23
ag23
aa(lp125
VSouth Station
p126
aV06:29
p127
aV07:17
p128
aV08:10
p129
aV08:35
p130
aV09:34
p131
aV11:46
p132
aV01:05
p133
aV03:26
p134
aV04:59
p135
aV07:28
p136
aV08:45
p137
aV09:49
p138
aa.