(lp0
(lp1
VTrain Number
p2
aV033\u000aAM
p3
aV061\u000aAM
p4
aV063\u000aAM
p5
aV065\u000aPM
p6
aV041\u000aPM
p7
aV043\u000aPM
p8
aV045\u000aPM
p9
aV047\u000aPM
p10
aV067\u000aPM
p11
aV051\u000aPM
p12
aV055\u000aPM
p13
aV057\u000aPM
p14
aa(lp15
VSouth Station
p16
aV07:11
p17
aV08:56
p18
aV10:50
p19
aV12:25
p20
aV02:47
p21
aV04:20
p22
aV05:00
p23
aV05:38
p24
aV06:15
p25
aV07:29
p26
aV09:30
p27
aV10:40
p28
aa(lp29
VJFK/UMass
p30
aV 
p31
ag31
ag31
ag31
aV02:53
p32
aV04:26
p33
aV05:06
p34
ag31
ag31
ag31
aV09:36
p35
aV10:46
p36
aa(lp37
VQuincy Center
p38
ag31
aV09:09
p39
ag31
ag31
ag31
ag31
ag31
aV05:51
p40
ag31
ag31
ag31
ag31
aa(lp41
VBraintree
p42
aV07:32
p43
aV09:15
p44
aV11:08
p45
aV12:44
p46
aV03:07
p47
aV04:40
p48
aV05:19
p49
aV05:57
p50
aV06:33
p51
aV07:47
p52
aV09:48
p53
aV10:59
p54
aa(lp55
VSouth Weymouth
p56
aV07:39
p57
aV09:22
p58
aV11:15
p59
aV12:51
p60
aV03:14
p61
aV04:47
p62
aV05:26
p63
aV06:04
p64
aV06:40
p65
aV07:54
p66
aV09:55
p67
aV11:06
p68
aa(lp69
VAbington
p70
aV07:44
p71
aV09:27
p72
aV11:20
p73
aV12:57
p74
aV03:19
p75
aV04:52
p76
aV05:31
p77
aV06:09
p78
aV06:45
p79
aV07:59
p80
aV10:00
p81
aV11:11
p82
aa(lp83
VWhitman
p84
aV07:47
p85
aV09:31
p86
aV11:24
p87
aV01:01
p88
aV03:23
p89
aV04:56
p90
aV05:35
p91
aV06:13
p92
aV06:48
p93
aV08:03
p94
aV10:03
p95
aV11:15
p96
aa(lp97
VHanson
p98
aV07:57
p99
aV09:36
p100
aV11:29
p101
aV01:06
p102
aV03:28
p103
aV05:01
p104
aV05:40
p105
aV06:18
p106
aV06:53
p107
aV08:08
p108
aV10:08
p109
aV11:20
p110
aa(lp111
VHalifax
p112
aV08:02
p113
aV09:41
p114
aV11:34
p115
aV01:11
p116
aV03:33
p117
aV05:06
p118
aV05:45
p119
aV06:23
p120
aV06:58
p121
aV08:13
p122
aV10:13
p123
aV11:25
p124
aa(lp125
VKingston
p126
aV08:12
p127
aV09:53
p128
ag31
aV01:23
p129
aV03:45
p130
aV05:18
p131
aV05:57
p132
aV06:35
p133
aV07:11
p134
aV08:26
p135
aV10:26
p136
aV11:36
p137
aa(lp138
VPlymouth
p139
ag31
aV10:23
p140
aV11:47
p141
aV01:52
p142
ag31
ag31
ag31
ag31
aV07:37
p143
ag31
ag31
ag31
aa.