(lp0
(lp1
VTrain Number
p2
aV2300\u000aAM
p3
aV2302\u000aAM
p4
aV2304\u000aAM
p5
aV2306\u000aPM
p6
aV2308\u000aPM
p7
aV2310\u000aPM
p8
aV2312\u000aPM
p9
aV2314\u000aPM
p10
aa(lp11
VLowell
p12
aV07:00
p13
aV09:00
p14
aV11:00
p15
aV01:00
p16
aV03:00
p17
aV05:00
p18
aV07:00
p19
aV09:00
p20
aa(lp21
VNorth Billerica
p22
aV07:08
p23
aV09:08
p24
aV11:08
p25
aV01:08F
p26
aV03:08F
p27
aV05:08F
p28
aV07:08F
p29
aV09:08F
p30
aa(lp31
VWilmington
p32
aV07:16
p33
aV09:16
p34
aV11:16
p35
aV01:16
p36
aV03:16
p37
aV05:16
p38
aV07:16
p39
aV09:16
p40
aa(lp41
VAnderson/ Woburn
p42
aV07:20
p43
aV09:20
p44
aV11:20
p45
aV01:20
p46
aV03:20
p47
aV05:20
p48
aV07:20
p49
aV09:20
p50
aa(lp51
VWinchester Center
p52
aV07:27
p53
aV09:27
p54
aV11:27
p55
aV01:27
p56
aV03:27
p57
aV05:27
p58
aV07:27
p59
aV09:27
p60
aa(lp61
VWedgemere
p62
aV07:29F
p63
aV09:29F
p64
aV11:29F
p65
aV01:29F
p66
aV03:29F
p67
aV05:29F
p68
aV07:29F
p69
aV09:29F
p70
aa(lp71
VWest Medford
p72
aV07:33F
p73
aV09:33F
p74
aV11:33F
p75
aV01:33F
p76
aV03:33F
p77
aV05:33F
p78
aV07:33F
p79
aV09:33F
p80
aa(lp81
VNorth Station
p82
aV07:44
p83
aV09:44
p84
aV11:44
p85
aV01:44
p86
aV03:44
p87
aV05:44
p88
aV07:44
p89
aV09:44
p90
aa.