(lp0
(lp1
VTrain Number
p2
aV300\u000aAM
p3
aV302\u000aAM
p4
aV304\u000aAM
p5
aV306\u000aAM
p6
aV308\u000aAM
p7
aV310\u000aAM
p8
aV392\u000aAM
p9
aV312\u000aAM
p10
aV314\u000aAM
p11
aV316\u000aAM
p12
aV318\u000aAM
p13
aV320\u000aAM
p14
aV322\u000aPM
p15
aV324\u000aPM
p16
aV326\u000aPM
p17
aV328\u000aPM
p18
aV330\u000aPM
p19
aV332\u000aPM
p20
aV334\u000aPM
p21
aV336\u000aPM
p22
aV338\u000aPM
p23
aV340\u000aPM
p24
aV342\u000aPM
p25
aV344\u000aPM
p26
aV346\u000aPM
p27
aV348\u000aPM
p28
aa(lp29
VLowell
p30
aV05:35
p31
aV06:15
p32
aV06:40
p33
aV07:00
p34
aV07:20
p35
aV07:40
p36
aV 
p37
aV08:20
p38
aV08:45
p39
aV09:15
p40
aV10:15
p41
aV11:15
p42
aV12:15
p43
aV01:15
p44
aV02:15
p45
aV03:14
p46
aV04:00
p47
aV04:47
p48
aV05:17
p49
aV05:47
p50
aV06:15
p51
aV06:52
p52
aV07:32
p53
aV08:45
p54
aV09:55
p55
aV11:05
p56
aa(lp57
VNorth Billerica
p58
aV05:43
p59
aV06:23
p60
aV06:48
p61
aV07:08
p62
aV07:28
p63
aV07:48
p64
ag37
aV08:28
p65
aV08:53
p66
aV09:23
p67
aV10:23
p68
aV11:23
p69
aV12:23
p70
aV01:23
p71
aV02:23
p72
aV03:22
p73
aV04:08
p74
aV04:55
p75
aV05:25
p76
aV05:55
p77
aV06:23
p78
aV07:00
p79
aV07:40
p80
aV08:53
p81
aV10:03
p82
aV11:13
p83
aa(lp84
VWilmington
p85
aV05:51
p86
aV06:31
p87
aV06:56
p88
aV07:16
p89
aV07:36
p90
aV07:56
p91
ag37
aV08:36
p92
aV09:01
p93
aV09:31
p94
aV10:31
p95
aV11:31
p96
aV12:31
p97
aV01:31
p98
aV02:31
p99
aV03:30
p100
aV04:16
p101
aV05:03
p102
aV05:33
p103
aV06:03
p104
aV06:31
p105
aV07:08
p106
aV07:48
p107
aV09:01
p108
aV10:11
p109
aV11:21
p110
aa(lp111
VAnderson/ Woburn
p112
aV05:56
p113
aV06:36
p114
aV07:01
p115
aV07:19
p116
aV07:41
p117
aV08:01
p118
aV08:21
p119
aV08:41
p120
aV09:06
p121
aV09:36
p122
aV10:36
p123
aV11:36
p124
aV12:36
p125
aV01:36
p126
aV02:36
p127
aV03:35
p128
aV04:21
p129
aV05:08
p130
aV05:38
p131
aV06:08
p132
aV06:36
p133
aV07:13
p134
aV07:53
p135
aV09:06
p136
aV10:16
p137
aV11:26
p138
aa(lp139
VMishawum
p140
ag37
ag37
ag37
ag37
ag37
ag37
ag37
ag37
ag37
ag37
ag37
ag37
ag37
ag37
ag37
ag37
aV04:22F
p141
ag37
aV05:39F
p142
aV06:09F
p143
ag37
ag37
ag37
ag37
ag37
ag37
aa(lp144
VWinchester Center
p145
aV06:03
p146
aV06:43
p147
aV07:08
p148
aV07:28
p149
aV07:48
p150
ag37
aV08:28
p151
aV08:48
p152
aV09:13
p153
aV09:43F
p154
aV10:43F
p155
aV11:43F
p156
aV12:43F
p157
aV01:43F
p158
aV02:43F
p159
ag37
aV04:28F
p160
aV05:15F
p161
aV05:45F
p162
aV06:15F
p163
aV06:43F
p164
aV07:20F
p165
aV08:00F
p166
aV09:13F
p167
aV10:23F
p168
aV11:33F
p169
aa(lp170
VWedgemere
p171
aV06:05
p172
aV06:45
p173
aV07:10
p174
aV07:30
p175
aV07:50
p176
ag37
aV08:30
p177
aV08:49
p178
aV09:14
p179
aV09:44F
p180
aV10:44F
p181
aV11:44F
p182
aV12:44F
p183
aV01:44F
p184
aV02:44F
p185
ag37
aV04:29F
p186
aV05:16F
p187
aV05:46F
p188
aV06:16F
p189
aV06:44F
p190
aV07:21F
p191
aV08:01F
p192
aV09:14F
p193
aV10:24F
p194
aV11:34F
p195
aa(lp196
VWest Medford
p197
aV06:09
p198
aV06:48
p199
aV07:14
p200
aV07:34
p201
aV07:53
p202
ag37
aV08:34
p203
aV08:53
p204
aV09:18
p205
aV09:47F
p206
aV10:47F
p207
aV11:47F
p208
aV12:47F
p209
aV01:47F
p210
aV02:47F
p211
ag37
aV04:32F
p212
aV05:19F
p213
aV05:49F
p214
aV06:19F
p215
aV06:47F
p216
aV07:24F
p217
aV08:04F
p218
aV09:17F
p219
aV10:27F
p220
aV11:37F
p221
aa(lp222
VNorth Station
p223
aV06:22
p224
aV07:01
p225
aV07:27
p226
aV07:47
p227
aV08:06
p228
aV08:21
p229
aV08:47
p230
aV09:06
p231
aV09:31
p232
aV10:00
p233
aV11:00
p234
aV12:00
p235
aV01:00
p236
aV02:00
p237
aV03:00
p238
aV03:55
p239
aV04:45
p240
aV05:32
p241
aV06:02
p242
aV06:32
p243
aV07:00
p244
aV07:37
p245
aV08:17
p246
aV09:30
p247
aV10:40
p248
aV11:50
p249
aa.