(lp0
(lp1
VTrain Number
p2
aV301\u000aAM
p3
aV303\u000aAM
p4
aV305\u000aAM
p5
aV307\u000aAM
p6
aV391\u000aAM
p7
aV309\u000aAM
p8
aV311\u000aAM
p9
aV313\u000aAM
p10
aV315\u000aAM
p11
aV317\u000aPM
p12
aV319\u000aPM
p13
aV321\u000aPM
p14
aV323\u000aPM
p15
aV325\u000aPM
p16
aV327\u000aPM
p17
aV329\u000aPM
p18
aV331\u000aPM
p19
aV333\u000aPM
p20
aV335\u000aPM
p21
aV337\u000aPM
p22
aV221\u000aPM
p23
aV339\u000aPM
p24
aV341\u000aPM
p25
aV343\u000aPM
p26
aV345\u000aPM
p27
aV347\u000aAM
p28
aa(lp29
VNorth Station
p30
aV05:35
p31
aV06:15
p32
aV06:37
p33
aV07:21
p34
aV07:42
p35
aV08:16
p36
aV09:15
p37
aV10:15
p38
aV11:15
p39
aV12:15
p40
aV01:15
p41
aV02:15
p42
aV03:00
p43
aV03:40
p44
aV04:15
p45
aV04:45
p46
aV05:10
p47
aV05:35
p48
aV05:50
p49
aV06:30
p50
aV06:55
p51
aV07:25
p52
aV08:35
p53
aV09:45
p54
aV10:55
p55
aV12:15
p56
aa(lp57
VWest Medford
p58
aV05:46F
p59
aV 
p60
aV06:48F
p61
aV07:32F
p62
ag60
aV08:27F
p63
aV09:26F
p64
aV10:26F
p65
aV11:26F
p66
aV12:26F
p67
aV01:26F
p68
aV02:26F
p69
aV03:11F
p70
aV03:51
p71
aV04:26
p72
aV04:56
p73
aV05:21
p74
ag60
aV06:01
p75
aV06:41
p76
aV07:06
p77
aV07:36F
p78
aV08:46F
p79
aV09:56F
p80
aV11:06F
p81
aV12:26F
p82
aa(lp83
VWedgemere
p84
aV05:50F
p85
ag60
aV06:52F
p86
aV07:36F
p87
ag60
aV08:31F
p88
aV09:30F
p89
aV10:30F
p90
aV11:30F
p91
aV12:30F
p92
aV01:30F
p93
aV02:30F
p94
aV03:15F
p95
aV03:56
p96
aV04:31
p97
aV05:01
p98
aV05:26
p99
ag60
aV06:06
p100
aV06:46
p101
aV07:11
p102
aV07:40F
p103
aV08:50F
p104
aV10:00F
p105
aV11:10F
p106
aV12:30F
p107
aa(lp108
VWinchester Center
p109
aV05:52F
p110
ag60
aV06:54F
p111
aV07:38F
p112
ag60
aV08:33F
p113
aV09:32F
p114
aV10:32F
p115
aV11:32F
p116
aV12:32F
p117
aV01:32F
p118
aV02:32F
p119
aV03:17F
p120
aV03:58
p121
aV04:33
p122
aV05:03
p123
aV05:28
p124
ag60
aV06:08
p125
aV06:48
p126
aV07:13
p127
aV07:42F
p128
aV08:52F
p129
aV10:02F
p130
aV11:12F
p131
aV12:32F
p132
aa(lp133
VMishawum
p134
ag60
ag60
aV07:00
p135
aV07:44
p136
ag60
aV08:39
p137
ag60
ag60
ag60
ag60
ag60
ag60
ag60
ag60
ag60
ag60
ag60
ag60
ag60
ag60
ag60
ag60
ag60
ag60
ag60
ag60
aa(lp138
VAnderson/ Woburn
p139
aV05:59
p140
aV06:34
p141
aV07:01
p142
aV07:45
p143
aV08:02
p144
aV08:40
p145
aV09:39
p146
aV10:39
p147
aV11:39
p148
aV12:39
p149
aV01:39
p150
aV02:39
p151
aV03:24
p152
aV04:05
p153
aV04:40
p154
aV05:10
p155
aV05:35
p156
aV05:54
p157
aV06:15
p158
aV06:55
p159
aV07:20
p160
aV07:49
p161
aV08:59
p162
aV10:09
p163
aV11:19
p164
aV12:39
p165
aa(lp166
VWilmington
p167
aV06:02
p168
aV06:37
p169
aV07:04
p170
aV07:48
p171
ag60
aV08:43
p172
aV09:42
p173
aV10:42
p174
aV11:42
p175
aV12:42
p176
aV01:42
p177
aV02:42
p178
aV03:27
p179
aV04:09
p180
aV04:44
p181
aV05:14
p182
aV05:39
p183
aV05:58
p184
aV06:19
p185
aV06:59
p186
aV07:24
p187
aV07:52
p188
aV09:02
p189
aV10:12
p190
aV11:22
p191
aV12:42
p192
aa(lp193
VNorth Billerica
p194
aV06:12
p195
aV06:47
p196
aV07:14
p197
aV07:58
p198
ag60
aV08:53
p199
aV09:52
p200
aV10:52
p201
aV11:52
p202
aV12:52
p203
aV01:52
p204
aV02:52
p205
aV03:37
p206
aV04:19
p207
aV04:54
p208
aV05:24
p209
aV05:49
p210
aV06:08
p211
aV06:29
p212
aV07:09
p213
aVVIA
p214
aV08:02
p215
aV09:12
p216
aV10:22
p217
aV11:32
p218
aV12:52
p219
aa(lp220
VLowell
p221
aV06:19
p222
aV06:54
p223
aV07:21
p224
aV08:05
p225
ag60
aV09:00
p226
aV09:59
p227
aV10:59
p228
aV11:59
p229
aV12:59
p230
aV01:59
p231
aV02:59
p232
aV03:44
p233
aV04:27
p234
aV05:02
p235
aV05:32
p236
aV05:57
p237
aV06:16
p238
aV06:37
p239
aV07:17
p240
aVHAV
p241
aV08:09
p242
aV09:19
p243
aV10:29
p244
aV11:39
p245
aV12:59
p246
aa.