(lp0
(lp1
VTrain Number
p2
aV1301\u000aAM
p3
aV1303\u000aAM
p4
aV1305\u000aPM
p5
aV1307\u000aPM
p6
aV1309\u000aPM
p7
aV1311\u000aPM
p8
aV1313\u000aPM
p9
aV1315\u000aPM
p10
aa(lp11
VNorth Station
p12
aV08:00
p13
aV10:00
p14
aV12:00
p15
aV02:00
p16
aV04:00
p17
aV06:00
p18
aV08:00
p19
aV11:30
p20
aa(lp21
VWest Medford
p22
aV08:11F
p23
aV10:11F
p24
aV12:11F
p25
aV02:11F
p26
aV04:11F
p27
aV06:11F
p28
aV08:11F
p29
aV11:41F
p30
aa(lp31
VWedgemere
p32
aV08:15F
p33
aV10:15F
p34
aV12:15F
p35
aV02:15F
p36
aV04:15F
p37
aV06:15F
p38
aV08:15F
p39
aV11:45F
p40
aa(lp41
VWinchester Center
p42
aV08:17
p43
aV10:17
p44
aV12:17
p45
aV02:17
p46
aV04:17
p47
aV06:17
p48
aV08:17
p49
aV11:47
p50
aa(lp51
VAnderson/ Woburn
p52
aV08:24
p53
aV10:24
p54
aV12:24
p55
aV02:24
p56
aV04:24
p57
aV06:24
p58
aV08:24
p59
aV11:54
p60
aa(lp61
VWilmington
p62
aV08:28
p63
aV10:28
p64
aV12:28
p65
aV02:28
p66
aV04:28
p67
aV06:28
p68
aV08:28
p69
aV11:58
p70
aa(lp71
VNorth Billerica
p72
aV08:37F
p73
aV10:37F
p74
aV12:37F
p75
aV02:37
p76
aV04:37
p77
aV06:37
p78
aV08:37
p79
aV12:07
p80
aa(lp81
VLowell
p82
aV08:44
p83
aV10:44
p84
aV12:44
p85
aV02:44
p86
aV04:44
p87
aV06:44
p88
aV08:44
p89
aV12:14
p90
aa.