(lp0
(lp1
VTrain Number
p2
aV002\u000aAM
p3
aV004\u000aAM
p4
aV006\u000aAM
p5
aV008\u000aAM
p6
aV010\u000aAM
p7
aV012\u000aAM
p8
aV014\u000aAM
p9
aV016\u000aPM
p10
aV018\u000aPM
p11
aV020\u000aPM
p12
aV022\u000aPM
p13
aV028\u000aPM
p14
aa(lp15
VMiddleboro/ Lakeville
p16
aV05:20
p17
aV06:00
p18
aV06:58
p19
aV07:20
p20
aV08:07
p21
aV09:38
p22
aV11:10
p23
aV01:08
p24
aV03:25
p25
aV04:54
p26
aV06:05
p27
aV09:25
p28
aa(lp29
VBridgewater
p30
aV05:30
p31
aV06:10
p32
aV07:08
p33
aV07:30
p34
aV08:17
p35
aV09:48
p36
aV11:20
p37
aV01:18
p38
aV03:35
p39
aV05:04
p40
aV06:20
p41
aV09:35
p42
aa(lp43
VCampello
p44
aV05:37
p45
aV06:18
p46
aV07:16
p47
aV07:38
p48
aV08:25
p49
aV09:56
p50
aV11:28
p51
aV01:26
p52
aV03:43
p53
aV05:11F
p54
aV06:28F
p55
aV09:42
p56
aa(lp57
VBrockton
p58
aV05:41
p59
aV06:22
p60
aV07:20
p61
aV07:42
p62
aV08:29
p63
aV10:00
p64
aV11:32
p65
aV01:30
p66
aV03:47
p67
aV05:15F
p68
aV06:33F
p69
aV09:46
p70
aa(lp71
VMontello
p72
aV05:44
p73
aV06:25
p74
aV07:23
p75
aV07:45
p76
aV08:32
p77
aV10:03
p78
aV11:35
p79
aV01:33
p80
aV03:50
p81
aV05:18F
p82
aV06:37F
p83
aV09:49
p84
aa(lp85
VHolbrook/ Randolph
p86
aV05:49
p87
aV06:30
p88
aV07:28
p89
aV07:50
p90
aV08:37
p91
aV10:08
p92
aV11:40
p93
aV01:38
p94
aV03:55
p95
aV05:23F
p96
aV06:42F
p97
aV09:54
p98
aa(lp99
VBraintree
p100
aV05:56
p101
aV 
p102
ag102
ag102
aV08:44
p103
ag102
ag102
aV01:44
p104
aV04:03
p105
aV05:31
p106
aV06:48
p107
aV10:00
p108
aa(lp109
VQuincy Center
p110
ag102
aV06:42
p111
aV07:39
p112
aV08:01
p113
ag102
aV10:20
p114
aV11:51
p115
aV01:49
p116
ag102
ag102
ag102
aV10:05
p117
aa(lp118
VJFK/UMass
p119
aV06:10
p120
ag102
aV07:48
p121
aV08:11
p122
aV08:58
p123
ag102
ag102
ag102
ag102
ag102
ag102
ag102
aa(lp124
VSouth Station
p125
aV06:17
p126
aV06:58
p127
aV07:56
p128
aV08:18
p129
aV09:05
p130
aV10:36
p131
aV12:07
p132
aV02:06
p133
aV04:24
p134
aV06:06
p135
aV07:15
p136
aV10:22
p137
aa.