(lp0
(lp1
VTrain Number
p2
aV1002\u000aAM
p3
aV1004\u000aAM
p4
aV1006\u000aAM
p5
aV1008\u000aPM
p6
aV1010\u000aPM
p7
aV1012\u000aPM
p8
aV1014\u000aPM
p9
aV1016\u000aPM
p10
aa(lp11
VMiddleboro/ Lakeville
p12
aV06:50
p13
aV08:22
p14
aV10:28
p15
aV12:43
p16
aV01:53
p17
aV04:06
p18
aV07:04
p19
aV09:22
p20
aa(lp21
VBridgewater
p22
aV07:00
p23
aV08:32
p24
aV10:38
p25
aV12:53
p26
aV02:03
p27
aV04:16
p28
aV07:14
p29
aV09:32
p30
aa(lp31
VCampello
p32
aV07:07
p33
aV08:40
p34
aV10:46
p35
aV01:01
p36
aV02:11
p37
aV04:24
p38
aV07:22
p39
aV09:40
p40
aa(lp41
VBrockton
p42
aV07:11
p43
aV08:44
p44
aV10:50
p45
aV01:05
p46
aV02:15
p47
aV04:28
p48
aV07:26
p49
aV09:44
p50
aa(lp51
VMontello
p52
aV07:14
p53
aV08:47
p54
aV10:53
p55
aV01:08
p56
aV02:18
p57
aV04:31
p58
aV07:29
p59
aV09:47
p60
aa(lp61
VHolbrook/ Randolph
p62
aV07:19
p63
aV08:52
p64
aV10:58
p65
aV01:13
p66
aV02:23
p67
aV04:37
p68
aV07:34
p69
aV09:52
p70
aa(lp71
VBraintree
p72
aV07:25
p73
aV 
p74
aV11:04
p75
ag74
aV02:29
p76
ag74
ag74
ag74
aa(lp77
VQuincy Center
p78
aV07:31
p79
aV09:05
p80
aV11:10
p81
aV01:24
p82
aV02:36
p83
aV04:47
p84
aV07:45
p85
aV10:03
p86
aa(lp87
VJFK/UMass
p88
aV07:39
p89
aV09:13
p90
aV11:17
p91
aV01:32
p92
aV02:44
p93
aV04:55
p94
aV07:53
p95
aV10:11
p96
aa(lp97
VSouth Station
p98
aV07:46
p99
aV09:20
p100
aV11:24
p101
aV01:40
p102
aV02:51
p103
aV05:03
p104
aV08:00
p105
aV10:18
p106
aa.