(lp0
(lp1
VTrain Number
p2
aV003\u000aAM
p3
aV005\u000aAM
p4
aV007\u000aAM
p5
aV009\u000aAM
p6
aV015\u000aPM
p7
aV017\u000aPM
p8
aV019\u000aPM
p9
aV021\u000aPM
p10
aV023\u000aPM
p11
aV025\u000aPM
p12
aV027\u000aPM
p13
aV029\u000aPM
p14
aa(lp15
VSouth Station
p16
aV06:35
p17
aV08:24
p18
aV09:57
p19
aV11:57
p20
aV02:10
p21
aV03:43
p22
aV04:40
p23
aV05:12
p24
aV05:57
p25
aV06:52
p26
aV08:07
p27
aV10:30
p28
aa(lp29
VJFK/UMass
p30
aV 
p31
ag31
ag31
ag31
ag31
aV03:49
p32
ag31
ag31
aV06:03
p33
ag31
aV08:13
p34
ag31
aa(lp35
VQuincy Center
p36
aV06:49
p37
ag31
aV10:10
p38
aV12:10
p39
aV02:23
p40
aV03:57
p41
aV04:53
p42
aV05:25
p43
aV06:11
p44
aV07:05
p45
aV08:21
p46
aV10:43
p47
aa(lp48
VBraintree
p49
aV06:55
p50
aV08:43
p51
ag31
ag31
ag31
ag31
ag31
ag31
ag31
ag31
ag31
ag31
aa(lp52
VHolbrook/ Randolph
p53
aV07:03F
p54
aV08:51
p55
aV10:22
p56
aV12:23
p57
aV02:36
p58
aV04:10
p59
aV05:06
p60
aV05:37
p61
aV06:23
p62
aV07:17
p63
aV08:34
p64
aV10:56
p65
aa(lp66
VMontello
p67
aV07:08F
p68
aV08:56
p69
aV10:27
p70
aV12:28
p71
aV02:41
p72
aV04:15
p73
aV05:11
p74
aV05:42
p75
aV06:28
p76
aV07:22
p77
aV08:39
p78
aV11:01
p79
aa(lp80
VBrockton
p81
aV07:12F
p82
aV08:59
p83
aV10:30
p84
aV12:31
p85
aV02:44
p86
aV04:18
p87
aV05:14
p88
aV05:45
p89
aV06:31
p90
aV07:25
p91
aV08:42
p92
aV11:04
p93
aa(lp94
VCampello
p95
aV07:20
p96
aV09:03
p97
aV10:34
p98
aV12:35
p99
aV02:48
p100
aV04:22
p101
aV05:18
p102
aV05:49
p103
aV06:35
p104
aV07:29
p105
aV08:46
p106
aV11:08
p107
aa(lp108
VBridgewater
p109
aV07:38
p110
aV09:11
p111
aV10:42
p112
aV12:43
p113
aV02:56
p114
aV04:30
p115
aV05:26
p116
aV05:57
p117
aV06:43
p118
aV07:37
p119
aV08:54
p120
aV11:16
p121
aa(lp122
VMiddleboro/ Lakeville
p123
aV07:50
p124
aV09:23
p125
aV10:53
p126
aV12:55
p127
aV03:10
p128
aV04:41
p129
aV05:38
p130
aV06:10
p131
aV06:55
p132
aV07:50
p133
aV09:05
p134
aV11:27
p135
aa.