(lp0
(lp1
VTrain Number
p2
aV1001\u000aAM
p3
aV1003\u000aAM
p4
aV1005\u000aPM
p5
aV1007\u000aPM
p6
aV1009\u000aPM
p7
aV1011\u000aPM
p8
aV1013\u000aPM
p9
aV1015\u000aPM
p10
aa(lp11
VSouth Station
p12
aV08:40
p13
aV11:20
p14
aV12:34
p15
aV02:10
p16
aV03:35
p17
aV05:40
p18
aV08:10
p19
aV10:35
p20
aa(lp21
VJFK/UMass
p22
aV08:46F
p23
aV11:26F
p24
aV12:40F
p25
aV02:16F
p26
aV03:41F
p27
aV05:46F
p28
aV08:16F
p29
aV10:41F
p30
aa(lp31
VQuincy Center
p32
aV08:53F
p33
aV11:33F
p34
aV12:47F
p35
aV02:24F
p36
aV03:49F
p37
aV05:54F
p38
aV08:24F
p39
aV10:49F
p40
aa(lp41
VBraintree
p42
aV09:00
p43
aV 
p44
aV12:54
p45
ag44
aV03:56
p46
aV06:01
p47
ag44
ag44
aa(lp48
VHolbrook/ Randolph
p49
aV09:07
p50
aV11:47
p51
aV01:00
p52
aV02:37
p53
aV04:02
p54
aV06:07
p55
aV08:36
p56
aV11:02
p57
aa(lp58
VMontello
p59
aV09:12
p60
aV11:52
p61
aV01:05
p62
aV02:42
p63
aV04:07
p64
aV06:12
p65
aV08:41
p66
aV11:07
p67
aa(lp68
VBrockton
p69
aV09:15
p70
aV11:55
p71
aV01:08
p72
aV02:45
p73
aV04:10
p74
aV06:15
p75
aV08:44
p76
aV11:11
p77
aa(lp78
VCampello
p79
aV09:19
p80
aV11:59
p81
aV01:12
p82
aV02:49
p83
aV04:14
p84
aV06:19
p85
aV08:48
p86
aV11:15
p87
aa(lp88
VBridgewater
p89
aV09:27
p90
aV12:07
p91
aV01:20
p92
aV02:57
p93
aV04:24
p94
aV06:27
p95
aV08:56
p96
aV11:23
p97
aa(lp98
VMiddleboro/ Lakeville
p99
aV09:38
p100
aV12:18
p101
aV01:32
p102
aV03:10
p103
aV04:34
p104
aV06:38
p105
aV09:08
p106
aV11:34
p107
aa.