(lp0
(lp1
VTrain Number
p2
aV100\u000aAM
p3
aV150\u000aAM
p4
aV152\u000aAM
p5
aV102\u000aAM
p6
aV154\u000aAM
p7
aV104\u000aAM
p8
aV156\u000aAM
p9
aV106\u000aAM
p10
aV158\u000aAM
p11
aV160\u000aAM
p12
aV192\u000aAM
p13
aV108\u000aAM
p14
aV162\u000aAM
p15
aV110\u000aAM
p16
aV164\u000aAM
p17
aV112\u000aAM
p18
aV166\u000aAM
p19
aV114\u000aPM
p20
aV168\u000aPM
p21
aV116\u000aPM
p22
aV170\u000aPM
p23
aV118\u000aPM
p24
aV172\u000aPM
p25
aV194\u000aPM
p26
aV120\u000aPM
p27
aV174\u000aPM
p28
aV122\u000aPM
p29
aV176\u000aPM
p30
aV124\u000aPM
p31
aV178\u000aPM
p32
aV126\u000aPM
p33
aV180\u000aPM
p34
aV128\u000aPM
p35
aV182\u000aPM
p36
aa(lp37
VRockport
p38
aV04:55
p39
aV 
p40
ag40
aV05:48
p41
ag40
aV06:30
p42
ag40
aV07:10
p43
ag40
ag40
ag40
aV08:15
p44
ag40
aV09:20
p45
ag40
aV11:00
p46
ag40
aV12:30
p47
ag40
aV01:50
p48
ag40
aV03:20
p49
ag40
ag40
aV05:10
p50
ag40
aV05:45
p51
ag40
aV07:15
p52
ag40
aV08:45
p53
ag40
aV10:30
p54
ag40
aa(lp55
VGloucester
p56
aV05:02
p57
ag40
ag40
aV05:55
p58
ag40
aV06:37
p59
ag40
aV07:17
p60
ag40
ag40
ag40
aV08:22
p61
ag40
aV09:27
p62
ag40
aV11:07
p63
ag40
aV12:37
p64
ag40
aV01:57
p65
ag40
aV03:27
p66
ag40
ag40
aV05:17
p67
ag40
aV05:52
p68
ag40
aV07:22
p69
ag40
aV08:52
p70
ag40
aV10:37
p71
ag40
aa(lp72
VWest Gloucester
p73
aV05:08
p74
ag40
ag40
aV06:01
p75
ag40
aV06:43
p76
ag40
aV07:23
p77
ag40
ag40
ag40
aV08:28
p78
ag40
aV09:33F
p79
ag40
aV11:13F
p80
ag40
aV12:43F
p81
ag40
aV02:03F
p82
ag40
aV03:33F
p83
ag40
ag40
aV05:23F
p84
ag40
aV05:58F
p85
ag40
aV07:28F
p86
ag40
aV08:58F
p87
ag40
aV10:43F
p88
ag40
aa(lp89
VManchester
p90
aV05:15
p91
ag40
ag40
aV06:08
p92
ag40
aV06:50
p93
ag40
aV07:30
p94
ag40
ag40
ag40
aV08:35
p95
ag40
aV09:40
p96
ag40
aV11:20
p97
ag40
aV12:50
p98
ag40
aV02:10
p99
ag40
aV03:40
p100
ag40
ag40
aV05:30
p101
ag40
aV06:05
p102
ag40
aV07:35
p103
ag40
aV09:05
p104
ag40
aV10:50
p105
ag40
aa(lp106
VBeverly Farms
p107
aV05:22
p108
ag40
ag40
aV06:15
p109
ag40
aV06:57
p110
ag40
aV07:37
p111
ag40
ag40
ag40
aV08:42
p112
ag40
aV09:47F
p113
ag40
aV11:27F
p114
ag40
aV12:57F
p115
ag40
aV02:17F
p116
ag40
aV03:47F
p117
ag40
ag40
aV05:37F
p118
ag40
aV06:12F
p119
ag40
aV07:42F
p120
ag40
aV09:12F
p121
ag40
aV10:57F
p122
ag40
aa(lp123
VPrides Crossing
p124
ag40
ag40
ag40
aV06:17F
p125
ag40
aV06:59F
p126
ag40
aV07:39F
p127
ag40
ag40
ag40
ag40
ag40
ag40
ag40
ag40
ag40
ag40
ag40
ag40
ag40
ag40
ag40
ag40
ag40
ag40
ag40
ag40
ag40
ag40
ag40
ag40
ag40
ag40
aa(lp128
VMontserrat
p129
aV05:28
p130
ag40
ag40
aV06:22
p131
ag40
aV07:04
p132
ag40
aV07:44
p133
ag40
ag40
ag40
aV08:48
p134
ag40
aV09:53F
p135
ag40
aV11:33F
p136
ag40
aV01:03F
p137
ag40
aV02:23F
p138
ag40
aV03:53F
p139
ag40
ag40
aV05:43F
p140
ag40
aV06:18F
p141
ag40
aV07:48F
p142
ag40
aV09:18F
p143
ag40
aV11:03F
p144
ag40
aa(lp145
VNewburyport
p146
ag40
aV05:20
p147
aV05:50
p148
ag40
aV06:25
p149
ag40
aV07:00
p150
ag40
aV07:30
p151
aV07:55
p152
ag40
ag40
aV09:15
p153
ag40
aV10:00
p154
ag40
aV11:40
p155
ag40
aV01:10
p156
ag40
aV02:55
p157
ag40
aV04:44
p158
ag40
ag40
aV05:46
p159
ag40
aV07:06
p160
ag40
aV08:10
p161
ag40
aV09:25
p162
ag40
aV11:03
p163
aa(lp164
VRowley
p165
ag40
aV05:25
p166
aV05:55
p167
ag40
aV06:30
p168
ag40
aV07:05
p169
ag40
aV07:35
p170
aV08:00
p171
ag40
ag40
aV09:20F
p172
ag40
aV10:05F
p173
ag40
aV11:45F
p174
ag40
aV01:15F
p175
ag40
aV03:00F
p176
ag40
aV04:49F
p177
ag40
ag40
aV05:51F
p178
ag40
aV07:11F
p179
ag40
aV08:15F
p180
ag40
aV09:30F
p181
ag40
aV11:08F
p182
aa(lp183
VIpswich
p184
ag40
aV05:31
p185
aV06:02
p186
ag40
aV06:37
p187
ag40
aV07:12
p188
ag40
aV07:42
p189
aV08:07
p190
ag40
ag40
aV09:26
p191
ag40
aV10:11
p192
ag40
aV11:51
p193
ag40
aV01:21
p194
ag40
aV03:06
p195
ag40
aV04:55
p196
ag40
ag40
aV05:57
p197
ag40
aV07:17
p198
ag40
aV08:21
p199
ag40
aV09:36
p200
ag40
aV11:14
p201
aa(lp202
VHamilton/ Wenham
p203
ag40
aV05:37
p204
aV06:08
p205
ag40
aV06:43
p206
ag40
aV07:18
p207
ag40
aV07:48
p208
aV08:13
p209
ag40
ag40
aV09:32F
p210
ag40
aV10:17F
p211
ag40
aV11:57F
p212
ag40
aV01:27F
p213
ag40
aV03:12F
p214
ag40
aV05:01F
p215
ag40
ag40
aV06:06F
p216
ag40
aV07:23F
p217
ag40
aV08:32F
p218
ag40
aV09:42F
p219
ag40
aV11:20F
p220
aa(lp221
VNorth Beverly
p222
ag40
aV05:41
p223
aV06:13
p224
ag40
aV06:48
p225
ag40
aV07:23
p226
ag40
aV07:53
p227
aV08:18
p228
ag40
ag40
aV09:36F
p229
ag40
aV10:21F
p230
ag40
aV12:01F
p231
ag40
aV01:31F
p232
ag40
aV03:16F
p233
ag40
aV05:05F
p234
ag40
ag40
ag40
ag40
aV07:27F
p235
ag40
aV08:36F
p236
ag40
aV09:46F
p237
ag40
aV11:24F
p238
aa(lp239
VBeverly
p240
aV05:33
p241
aV05:47
p242
aV06:18
p243
aV06:27
p244
aV06:53
p245
aV07:09
p246
aV07:28
p247
aV07:49
p248
aV07:58
p249
aV08:24
p250
aV08:33
p251
aV08:54
p252
aV09:42
p253
aV09:58
p254
aV10:27
p255
aV11:38
p256
aV12:07
p257
aV01:08
p258
aV01:37
p259
aV02:28
p260
aV03:22
p261
aV03:58
p262
aV05:11
p263
aV05:35
p264
aV05:48
p265
aV06:14
p266
aV06:23
p267
aV07:33
p268
aV07:53
p269
aV08:42
p270
aV09:23
p271
aV09:52
p272
aV11:08
p273
aV11:30
p274
aa(lp275
VSalem
p276
aV05:37
p277
aV05:51
p278
aV06:22
p279
aV06:31
p280
aV06:57
p281
aV07:13
p282
aV07:33
p283
aV07:53
p284
aV08:02
p285
aV08:28
p286
aV08:37
p287
aV08:58
p288
aV09:46
p289
aV10:02
p290
aV10:31
p291
aV11:42
p292
aV12:11
p293
aV01:12
p294
aV01:41
p295
aV02:32
p296
aV03:26
p297
aV04:02
p298
aV05:15
p299
aV05:39
p300
aV05:52
p301
aV06:18
p302
aV06:27
p303
aV07:37
p304
aV07:57
p305
aV08:46
p306
aV09:27
p307
aV09:56
p308
aV11:12
p309
aV11:34
p310
aa(lp311
VSwampscott
p312
aV05:45
p313
aV05:59
p314
ag40
aV06:39
p315
aV07:05
p316
ag40
aV07:41
p317
aV08:01
p318
aV08:10
p319
ag40
aV08:45
p320
aV09:06
p321
aV09:54
p322
aV10:10
p323
aV10:39
p324
aV11:50
p325
aV12:19
p326
aV01:20
p327
aV01:49
p328
aV02:40
p329
aV03:34
p330
aV04:10
p331
aV05:23
p332
ag40
aV06:00
p333
ag40
aV06:35
p334
aV07:45
p335
aV08:05
p336
aV08:54
p337
aV09:35
p338
aV10:04
p339
aV11:20
p340
ag40
aa(lp341
VLynn
p342
aV05:49
p343
aV06:03
p344
ag40
aV06:43
p345
aV07:09
p346
ag40
aV07:45
p347
ag40
aV08:14
p348
ag40
aV08:49
p349
aV09:10
p350
aV09:58
p351
aV10:14
p352
aV10:43
p353
aV11:54
p354
aV12:23
p355
aV01:24
p356
aV01:53
p357
aV02:44
p358
aV03:38
p359
aV04:14
p360
aV05:27
p361
ag40
aV06:04
p362
ag40
aV06:39
p363
aV07:49
p364
aV08:09
p365
aV08:58
p366
aV09:39
p367
aV10:08
p368
aV11:24
p369
ag40
aa(lp370
VRiver Works (Ge Employees Only)
p371
aV05:52F
p372
aV06:06F
p373
ag40
aV06:46F
p374
aV07:12F
p375
ag40
aV07:48F
p376
ag40
aV08:17F
p377
ag40
aV08:52F
p378
ag40
ag40
ag40
ag40
ag40
ag40
ag40
ag40
aV02:47F
p379
aV03:41F
p380
aV04:17F
p381
aV05:30F
p382
ag40
aV06:07F
p383
ag40
aV06:42F
p384
ag40
ag40
ag40
aV09:42F
p385
ag40
aV11:27F
p386
ag40
aa(lp387
VChelsea
p388
aV05:59
p389
aV06:13
p390
ag40
aV06:53
p391
aV07:19
p392
ag40
aV07:55
p393
ag40
aV08:24
p394
ag40
aV08:59
p395
aV09:19
p396
aV10:07F
p397
aV10:23F
p398
aV10:52F
p399
aV12:03F
p400
aV12:32F
p401
aV01:33F
p402
aV02:02F
p403
aV02:54F
p404
aV03:48F
p405
aV04:24F
p406
aV05:37F
p407
ag40
aV06:14F
p408
ag40
aV06:49F
p409
aV07:58F
p410
aV08:18F
p411
aV09:07F
p412
aV09:49F
p413
aV10:17F
p414
aV11:34F
p415
ag40
aa(lp416
VNorth Station
p417
aV06:11
p418
aV06:25
p419
aV06:49
p420
aV07:05
p421
aV07:31
p422
aV07:40
p423
aV08:08
p424
aV08:22
p425
aV08:36
p426
aV08:55
p427
aV09:11
p428
aV09:31
p429
aV10:18
p430
aV10:34
p431
aV11:03
p432
aV12:14
p433
aV12:43
p434
aV01:44
p435
aV02:13
p436
aV03:05
p437
aV03:59
p438
aV04:35
p439
aV05:50
p440
aV06:05
p441
aV06:25
p442
aV06:44
p443
aV07:00
p444
aV08:09
p445
aV08:29
p446
aV09:18
p447
aV10:00
p448
aV10:28
p449
aV11:45
p450
aV12:00
p451
aa.