(lp0
(lp1
VTrain Number
p2
aV2101\u000aAM
p3
aV2151\u000aAM
p4
aV2103\u000aAM
p5
aV2153\u000aAM
p6
aV2105\u000aPM
p7
aV2155\u000aPM
p8
aV2107\u000aPM
p9
aV2157\u000aPM
p10
aV2109\u000aPM
p11
aV2159\u000aPM
p12
aV2111\u000aPM
p13
aV2161\u000aPM
p14
aV2113\u000aPM
p15
aa(lp16
VNorth Station
p17
aV08:30
p18
aV09:30
p19
aV10:20
p20
aV11:30
p21
aV12:20
p22
aV01:30
p23
aV02:20
p24
aV04:30
p25
aV05:30
p26
aV07:15
p27
aV08:30
p28
aV10:20
p29
aV11:30
p30
aa(lp31
VChelsea
p32
aV08:41F
p33
aV09:41F
p34
aV10:31F
p35
aV11:41F
p36
aV12:31F
p37
aV01:41F
p38
aV02:31F
p39
aV04:41F
p40
aV05:41F
p41
aV07:26F
p42
aV08:41F
p43
aV10:31F
p44
aV11:41F
p45
aa(lp46
VLynn
p47
aV08:51
p48
aV09:51
p49
aV10:41
p50
aV11:51
p51
aV12:41
p52
aV01:51
p53
aV02:41
p54
aV04:51
p55
aV05:51
p56
aV07:36
p57
aV08:51
p58
aV10:41
p59
aV11:51
p60
aa(lp61
VSwampscott
p62
aV08:54
p63
aV09:54
p64
aV10:44
p65
aV11:54
p66
aV12:44
p67
aV01:54
p68
aV02:44
p69
aV04:54
p70
aV05:54
p71
aV07:39
p72
aV08:54
p73
aV10:44
p74
aV11:54
p75
aa(lp76
VSalem
p77
aV09:01
p78
aV10:01
p79
aV10:51
p80
aV12:01
p81
aV12:51
p82
aV02:01
p83
aV02:51
p84
aV05:01
p85
aV06:01
p86
aV07:46
p87
aV09:01
p88
aV10:51
p89
aV12:01
p90
aa(lp91
VBeverly
p92
aV09:05
p93
aV10:05
p94
aV10:55
p95
aV12:05
p96
aV12:55
p97
aV02:05
p98
aV02:55
p99
aV05:05
p100
aV06:05
p101
aV07:50
p102
aV09:05
p103
aV10:55
p104
aV12:05
p105
aa(lp106
VNorth Beverly
p107
aV 
p108
aV10:09F
p109
ag108
aV12:09F
p110
ag108
aV02:09F
p111
ag108
aV05:09F
p112
ag108
aV07:54F
p113
ag108
aV10:59F
p114
ag108
aa(lp115
VHamilton/ Wenham
p116
ag108
aV10:13
p117
ag108
aV12:13
p118
ag108
aV02:13
p119
ag108
aV05:13
p120
ag108
aV07:58
p121
ag108
aV11:03
p122
ag108
aa(lp123
VIpswich
p124
ag108
aV10:20
p125
ag108
aV12:20
p126
ag108
aV02:20
p127
ag108
aV05:20
p128
ag108
aV08:05
p129
ag108
aV11:10
p130
ag108
aa(lp131
VRowley
p132
ag108
aV10:27
p133
ag108
aV12:27
p134
ag108
aV02:27
p135
ag108
aV05:27
p136
ag108
aV08:12
p137
ag108
aV11:17
p138
ag108
aa(lp139
VNewburyport
p140
ag108
aV10:34
p141
ag108
aV12:34
p142
ag108
aV02:34
p143
ag108
aV05:34
p144
ag108
aV08:19
p145
ag108
aV11:24
p146
ag108
aa(lp147
VMontserrat
p148
aV09:09F
p149
ag108
aV10:59F
p150
ag108
aV12:59F
p151
ag108
aV02:59F
p152
ag108
aV06:09F
p153
ag108
aV09:09F
p154
ag108
aV12:09F
p155
aa(lp156
VBeverly Farms
p157
aV09:14F
p158
ag108
aV11:04F
p159
ag108
aV01:04F
p160
ag108
aV03:04F
p161
ag108
aV06:14F
p162
ag108
aV09:14F
p163
ag108
aV12:14F
p164
aa(lp165
VManchester
p166
aV09:20
p167
ag108
aV11:10
p168
ag108
aV01:10
p169
ag108
aV03:10
p170
ag108
aV06:20
p171
ag108
aV09:20
p172
ag108
aV12:20
p173
aa(lp174
VWest Gloucester
p175
aV09:27F
p176
ag108
aV11:17F
p177
ag108
aV01:17F
p178
ag108
aV03:17F
p179
ag108
aV06:27F
p180
ag108
aV09:27F
p181
ag108
aV12:27F
p182
aa(lp183
VGloucester
p184
aV09:34
p185
ag108
aV11:24
p186
ag108
aV01:24
p187
ag108
aV03:24
p188
ag108
aV06:34
p189
ag108
aV09:34
p190
ag108
aV12:34
p191
aa(lp192
VRockport
p193
aV09:42
p194
ag108
aV11:32
p195
ag108
aV01:32
p196
ag108
aV03:32
p197
ag108
aV06:42
p198
ag108
aV09:42
p199
ag108
aV12:42
p200
aa.