(lp0
(lp1
VTrain Number
p2
aV1100\u000aAM
p3
aV1150\u000aAM
p4
aV1102\u000aAM
p5
aV1152\u000aAM
p6
aV1104\u000aPM
p7
aV1154\u000aPM
p8
aV1106\u000aPM
p9
aV1156\u000aPM
p10
aV1108\u000aPM
p11
aV1158\u000aPM
p12
aV1110\u000aPM
p13
aV1160\u000aPM
p14
aV1112\u000aPM
p15
aa(lp16
VRockport
p17
aV07:00
p18
aV 
p19
aV10:00
p20
ag19
aV12:00
p21
ag19
aV02:00
p22
ag19
aV05:10
p23
ag19
aV07:30
p24
ag19
aV10:00
p25
aa(lp26
VGloucester
p27
aV07:07
p28
ag19
aV10:07
p29
ag19
aV12:07
p30
ag19
aV02:07
p31
ag19
aV05:17
p32
ag19
aV07:37
p33
ag19
aV10:07
p34
aa(lp35
VWest Gloucester
p36
aV07:13F
p37
ag19
aV10:13F
p38
ag19
aV12:13F
p39
ag19
aV02:13F
p40
ag19
aV05:23F
p41
ag19
aV07:43F
p42
ag19
aV10:13F
p43
aa(lp44
VManchester
p45
aV07:20
p46
ag19
aV10:20
p47
ag19
aV12:20
p48
ag19
aV02:20
p49
ag19
aV05:30
p50
ag19
aV07:50
p51
ag19
aV10:20
p52
aa(lp53
VBeverly Farms
p54
aV07:25F
p55
ag19
aV10:25F
p56
ag19
aV12:25F
p57
ag19
aV02:25F
p58
ag19
aV05:35F
p59
ag19
aV07:55F
p60
ag19
aV10:25F
p61
aa(lp62
VMontserrat
p63
aV07:31F
p64
ag19
aV10:31F
p65
ag19
aV12:31F
p66
ag19
aV02:31F
p67
ag19
aV05:41F
p68
ag19
aV08:01F
p69
ag19
aV10:31F
p70
aa(lp71
VNewburyport
p72
ag19
aV08:52
p73
ag19
aV10:52
p74
ag19
aV12:52
p75
ag19
aV02:52
p76
ag19
aV05:52
p77
ag19
aV09:00
p78
ag19
aa(lp79
VRowley
p80
ag19
aV08:58
p81
ag19
aV10:58
p82
ag19
aV12:58
p83
ag19
aV02:58
p84
ag19
aV05:58
p85
ag19
aV09:06
p86
ag19
aa(lp87
VIpswich
p88
ag19
aV09:05
p89
ag19
aV11:05
p90
ag19
aV01:05
p91
ag19
aV03:05
p92
ag19
aV06:05
p93
ag19
aV09:13
p94
ag19
aa(lp95
VHamilton/ Wenham
p96
ag19
aV09:12
p97
ag19
aV11:12
p98
ag19
aV01:12
p99
ag19
aV03:12
p100
ag19
aV06:12
p101
ag19
aV09:20
p102
ag19
aa(lp103
VNorth Beverly
p104
ag19
aV09:15F
p105
ag19
aV11:15F
p106
ag19
aV01:15F
p107
ag19
aV03:15F
p108
ag19
aV06:15F
p109
ag19
aV09:23F
p110
ag19
aa(lp111
VBeverly
p112
aV07:36
p113
aV09:20
p114
aV10:36
p115
aV11:20
p116
aV12:36
p117
aV01:20
p118
aV02:36
p119
aV03:20
p120
aV05:46
p121
aV06:20
p122
aV08:06
p123
aV09:28
p124
aV10:36
p125
aa(lp126
VSalem
p127
aV07:40
p128
aV09:24
p129
aV10:40
p130
aV11:24
p131
aV12:40
p132
aV01:24
p133
aV02:40
p134
aV03:24
p135
aV05:50
p136
aV06:24
p137
aV08:10
p138
aV09:32
p139
aV10:40
p140
aa(lp141
VSwampscott
p142
aV07:46
p143
aV09:30
p144
aV10:46
p145
aV11:30
p146
aV12:46
p147
aV01:30
p148
aV02:46
p149
aV03:30
p150
aV05:56
p151
aV06:30
p152
aV08:16
p153
aV09:38
p154
aV10:46
p155
aa(lp156
VLynn
p157
aV07:50
p158
aV09:34
p159
aV10:50
p160
aV11:34
p161
aV12:50
p162
aV01:34
p163
aV02:50
p164
aV03:34
p165
aV06:00
p166
aV06:34
p167
aV08:20
p168
aV09:42
p169
aV10:50
p170
aa(lp171
VChelsea
p172
aV07:59F
p173
aV09:44F
p174
aV10:59F
p175
aV11:44F
p176
aV12:59F
p177
aV01:44F
p178
aV02:59F
p179
aV03:44F
p180
aV06:09F
p181
aV06:44F
p182
aV08:29F
p183
aV09:52F
p184
aV10:59F
p185
aa(lp186
VNorth Station
p187
aV08:11
p188
aV09:56
p189
aV11:11
p190
aV11:56
p191
aV01:11
p192
aV01:56
p193
aV03:11
p194
aV03:56
p195
aV06:21
p196
aV06:56
p197
aV08:41
p198
aV10:04
p199
aV11:11
p200
aa.