(lp0
(lp1
VTrain Number
p2
aV153\u000aAM
p3
aV101\u000aAM
p4
aV191\u000aAM
p5
aV155\u000aAM
p6
aV103\u000aAM
p7
aV157\u000aAM
p8
aV105\u000aAM
p9
aV159\u000aAM
p10
aV107\u000aAM
p11
aV161\u000aAM
p12
aV109\u000aPM
p13
aV163\u000aPM
p14
aV111\u000aPM
p15
aV165\u000aPM
p16
aV113\u000aPM
p17
aV115\u000aPM
p18
aV167\u000aPM
p19
aV193\u000aPM
p20
aV117\u000aPM
p21
aV169\u000aPM
p22
aV119\u000aPM
p23
aV171\u000aPM
p24
aV173\u000aPM
p25
aV121\u000aPM
p26
aV175\u000aPM
p27
aV123\u000aPM
p28
aV177\u000aPM
p29
aV125\u000aPM
p30
aV179\u000aPM
p31
aV127\u000aPM
p32
aV181\u000aPM
p33
aV129\u000aAM
p34
aV183\u000aAM
p35
aa(lp36
VNorth Station
p37
aV06:26
p38
aV06:39
p39
aV07:08
p40
aV07:37
p41
aV07:50
p42
aV08:10
p43
aV08:35
p44
aV09:40
p45
aV10:35
p46
aV11:20
p47
aV12:00
p48
aV01:20
p49
aV01:50
p50
aV03:15
p51
aV03:35
p52
aV04:15
p53
aV04:30
p54
aV04:40
p55
aV05:00
p56
aV05:15
p57
aV05:30
p58
aV05:40
p59
aV06:05
p60
aV06:25
p61
aV06:45
p62
aV07:15
p63
aV07:35
p64
aV08:45
p65
aV09:10
p66
aV10:20
p67
aV10:50
p68
aV12:10
p69
aV12:15
p70
aa(lp71
VChelsea
p72
aV 
p73
aV06:50F
p74
aV07:19F
p75
aV07:49F
p76
aV08:02F
p77
aV08:22F
p78
aV08:47F
p79
aV09:52F
p80
aV10:47F
p81
aV11:32F
p82
aV12:12F
p83
aV01:32F
p84
aV02:02F
p85
aV03:27
p86
aV03:47
p87
aV04:27
p88
ag73
aV04:52
p89
ag73
aV05:27
p90
ag73
aV05:52
p91
aV06:17
p92
aV06:37
p93
aV06:57
p94
aV07:27F
p95
aV07:47F
p96
aV08:57F
p97
aV09:22F
p98
aV10:32F
p99
aV11:02F
p100
aV12:22F
p101
aV12:27F
p102
aa(lp103
VRiver Works (Ge Employees Only)
p104
ag73
aV06:57F
p105
aV07:26F
p106
ag73
aV08:09F
p107
aV08:29F
p108
ag73
ag73
ag73
ag73
ag73
ag73
aV02:09F
p109
aV03:35F
p110
aV03:55F
p111
aV04:35F
p112
ag73
ag73
ag73
ag73
ag73
aV06:00F
p113
ag73
aV06:45F
p114
aV07:05F
p115
aV07:34F
p116
ag73
ag73
ag73
aV10:39F
p117
ag73
ag73
ag73
aa(lp118
VLynn
p119
ag73
ag73
aV07:28
p120
aV07:57
p121
aV08:11
p122
aV08:31
p123
aV08:55
p124
aV10:00
p125
aV10:55
p126
aV11:40
p127
aV12:20
p128
aV01:40
p129
aV02:11
p130
aV03:37
p131
aV03:57
p132
aV04:37
p133
ag73
aV05:00
p134
ag73
aV05:35
p135
ag73
aV06:02
p136
aV06:25
p137
aV06:47
p138
aV07:07
p139
aV07:36
p140
aV07:55
p141
aV09:05
p142
aV09:30
p143
aV10:41
p144
aV11:10
p145
aV12:30
p146
aV12:35
p147
aa(lp148
VSwampscott
p149
ag73
ag73
aV07:33
p150
aV08:02
p151
aV08:16
p152
aV08:36
p153
aV09:00
p154
aV10:05
p155
aV11:00
p156
aV11:45
p157
aV12:25
p158
aV01:45
p159
aV02:16
p160
aV03:42
p161
aV04:02
p162
aV04:42
p163
ag73
aV05:05
p164
ag73
aV05:40
p165
ag73
aV06:07
p166
aV06:30
p167
aV06:52
p168
aV07:12
p169
aV07:41
p170
aV08:00
p171
aV09:10
p172
aV09:35
p173
aV10:46
p174
aV11:15
p175
aV12:35
p176
aV12:40
p177
aa(lp178
VSalem
p179
aV06:52
p180
aV07:07
p181
aV07:40
p182
aV08:09
p183
aV08:23
p184
aV08:43
p185
aV09:07
p186
aV10:12
p187
aV11:07
p188
aV11:52
p189
aV12:32
p190
aV01:52
p191
aV02:23
p192
aV03:49
p193
aV04:09
p194
aV04:49
p195
aV04:57
p196
aV05:12
p197
aV05:26
p198
aV05:47
p199
aV05:57
p200
aV06:14
p201
aV06:37
p202
aV06:59
p203
aV07:19
p204
aV07:48
p205
aV08:07
p206
aV09:17
p207
aV09:42
p208
aV10:53
p209
aV11:22
p210
aV12:42
p211
aV12:47
p212
aa(lp213
VBeverly
p214
aV06:56
p215
aV07:11
p216
aV07:44
p217
aV08:13
p218
aV08:27
p219
aV08:47
p220
aV09:11
p221
aV10:16
p222
aV11:11
p223
aV11:56
p224
aV12:36
p225
aV01:56
p226
aV02:27
p227
aV03:54
p228
aV04:13
p229
aV04:53
p230
aV05:02
p231
aV05:16
p232
aV05:30
p233
aV05:51
p234
aV06:02
p235
aV06:18
p236
aV06:41
p237
aV07:03
p238
aV07:23
p239
aV07:52
p240
aV08:11
p241
aV09:21
p242
aV09:46
p243
aV10:57
p244
aV11:26
p245
aV12:46
p246
aV12:51
p247
aa(lp248
VNorth Beverly
p249
aV07:00F
p250
ag73
ag73
aV08:17F
p251
ag73
aV08:51F
p252
ag73
aV10:20F
p253
ag73
aV12:00F
p254
ag73
aV02:00F
p255
ag73
aV03:59
p256
ag73
ag73
aV05:07
p257
ag73
ag73
aV05:56
p258
ag73
aV06:23
p259
aV06:46
p260
ag73
aV07:28
p261
ag73
aV08:16
p262
ag73
aV09:50F
p263
ag73
aV11:30F
p264
ag73
aV12:55F
p265
aa(lp266
VHamilton/ Wenham
p267
aV07:04F
p268
ag73
ag73
aV08:21F
p269
ag73
aV08:55F
p270
ag73
aV10:24F
p271
ag73
aV12:04F
p272
ag73
aV02:04F
p273
ag73
aV04:03
p274
ag73
ag73
aV05:11
p275
ag73
ag73
aV06:00
p276
ag73
aV06:27
p277
aV06:50
p278
ag73
aV07:32
p279
ag73
aV08:21
p280
ag73
aV09:54F
p281
ag73
aV11:34F
p282
ag73
aV12:59F
p283
aa(lp284
VIpswich
p285
aV07:15
p286
ag73
ag73
aV08:27
p287
ag73
aV09:03
p288
ag73
aV10:30
p289
ag73
aV12:10
p290
ag73
aV02:10
p291
ag73
aV04:09
p292
ag73
ag73
aV05:17
p293
ag73
ag73
aV06:06
p294
ag73
aV06:33
p295
aV06:56
p296
ag73
aV07:38
p297
ag73
aV08:27
p298
ag73
aV10:00
p299
ag73
aV11:40
p300
ag73
aV01:05
p301
aa(lp302
VRowley
p303
ag73
ag73
ag73
aV08:32F
p304
ag73
aV09:08F
p305
ag73
aV10:35F
p306
ag73
aV12:15F
p307
ag73
aV02:15F
p308
ag73
aV04:15
p309
ag73
ag73
aV05:23
p310
ag73
ag73
aV06:12
p311
ag73
aV06:39
p312
aV07:02
p313
ag73
aV07:44
p314
ag73
aV08:32F
p315
ag73
aV10:05F
p316
ag73
aV11:45F
p317
ag73
aV01:10F
p318
aa(lp319
VNewburyport
p320
aV07:29
p321
ag73
ag73
aV08:40
p322
ag73
aV09:16
p323
ag73
aV10:43
p324
ag73
aV12:23
p325
ag73
aV02:23
p326
ag73
aV04:24
p327
ag73
ag73
aV05:31
p328
ag73
ag73
aV06:20
p329
ag73
aV06:48
p330
aV07:10
p331
ag73
aV07:52
p332
ag73
aV08:40
p333
ag73
aV10:13
p334
ag73
aV11:53
p335
ag73
aV01:18
p336
aa(lp337
VMontserrat
p338
ag73
aV07:15F
p339
ag73
ag73
aV08:31F
p340
ag73
aV09:15F
p341
ag73
aV11:15F
p342
ag73
aV12:40F
p343
ag73
aV02:31F
p344
ag73
aV04:17
p345
aV04:57
p346
ag73
ag73
aV05:34
p347
ag73
aV06:06
p348
ag73
ag73
aV07:07
p349
ag73
aV07:56F
p350
ag73
aV09:25F
p351
ag73
aV11:01F
p352
ag73
aV12:50F
p353
ag73
aa(lp354
VPrides Crossing
p355
ag73
ag73
ag73
ag73
ag73
ag73
ag73
ag73
ag73
ag73
ag73
ag73
ag73
ag73
aV04:21F
p356
ag73
ag73
ag73
aV05:38F
p357
ag73
aV06:10F
p358
ag73
ag73
aV07:11F
p359
ag73
aV08:00F
p360
ag73
ag73
ag73
ag73
ag73
ag73
ag73
aa(lp361
VBeverly Farms
p362
ag73
aV07:21F
p363
ag73
ag73
aV08:37F
p364
ag73
aV09:21F
p365
ag73
aV11:21F
p366
ag73
aV12:46F
p367
ag73
aV02:37F
p368
ag73
aV04:25
p369
aV05:03
p370
ag73
ag73
aV05:42
p371
ag73
aV06:14
p372
ag73
ag73
aV07:15
p373
ag73
aV08:04F
p374
ag73
aV09:31F
p375
ag73
aV11:07F
p376
ag73
aV12:56F
p377
ag73
aa(lp378
VManchester
p379
ag73
aV07:26
p380
ag73
ag73
aV08:42
p381
ag73
aV09:26
p382
ag73
aV11:26
p383
ag73
aV12:51
p384
ag73
aV02:42
p385
ag73
aV04:30
p386
aV05:08
p387
ag73
ag73
aV05:47
p388
ag73
aV06:19
p389
ag73
ag73
aV07:20
p390
ag73
aV08:09
p391
ag73
aV09:36
p392
ag73
aV11:12
p393
ag73
aV01:01
p394
ag73
aa(lp395
VWest Gloucester
p396
ag73
aV07:32F
p397
ag73
ag73
aV08:48F
p398
ag73
aV09:32F
p399
ag73
aV11:32F
p400
ag73
aV12:57F
p401
ag73
aV02:48F
p402
ag73
aV04:36
p403
aV05:15
p404
ag73
ag73
aV05:53
p405
ag73
aV06:25
p406
ag73
ag73
aV07:26
p407
ag73
aV08:15F
p408
ag73
aV09:42F
p409
ag73
aV11:18F
p410
ag73
aV01:07F
p411
ag73
aa(lp412
VGloucester
p413
ag73
aV07:39
p414
ag73
ag73
aV08:55
p415
ag73
aV09:39
p416
ag73
aV11:39
p417
ag73
aV01:04
p418
ag73
aV02:55
p419
ag73
aV04:44
p420
aV05:22
p421
ag73
ag73
aV06:01
p422
ag73
aV06:33
p423
ag73
ag73
aV07:34
p424
ag73
aV08:22
p425
ag73
aV09:49
p426
ag73
aV11:25
p427
ag73
aV01:14
p428
ag73
aa(lp429
VRockport
p430
ag73
aV07:47
p431
ag73
ag73
aV09:03
p432
ag73
aV09:47
p433
ag73
aV11:47
p434
ag73
aV01:12
p435
ag73
aV03:03
p436
ag73
aV04:53
p437
aV05:32
p438
ag73
ag73
aV06:10
p439
ag73
aV06:42
p440
ag73
ag73
aV07:43
p441
ag73
aV08:30
p442
ag73
aV09:57
p443
ag73
aV11:33
p444
ag73
aV01:22
p445
ag73
aa.