(lp0
(lp1
VTrain Number
p2
aV601\u000aAM
p3
aV603\u000aAM
p4
aV605\u000aAM
p5
aV607\u000aAM
p6
aV609\u000aAM
p7
aV611\u000aPM
p8
aV613\u000aPM
p9
aV615\u000aPM
p10
aV617\u000aPM
p11
aV619\u000aPM
p12
aV621\u000aPM
p13
aV623\u000aPM
p14
aV625\u000aPM
p15
aV627\u000aPM
p16
aV629\u000aPM
p17
aV631\u000aPM
p18
aa(lp19
VSouth Station
p20
aV07:05
p21
aV07:52
p22
aV09:05
p23
aV09:53
p24
aV11:50
p25
aV01:52
p26
aV03:00
p27
aV04:05
p28
aV04:47
p29
aV05:26
p30
aV05:58
p31
aV06:36
p32
aV07:30
p33
aV08:50
p34
aV09:50
p35
aV11:20
p36
aa(lp37
VBack Bay
p38
aV07:10
p39
aV07:57
p40
aV09:10
p41
aV09:58
p42
aV11:55
p43
aV01:57
p44
aV03:05
p45
aV04:10
p46
aV04:52
p47
aV05:31
p48
aV06:03
p49
aV06:41
p50
aV07:35
p51
aV08:55
p52
aV09:55
p53
aV11:25
p54
aa(lp55
VRuggles
p56
aV 
p57
ag57
ag57
aV10:02
p58
aV11:59
p59
aV02:01
p60
aV03:09
p61
aV04:14
p62
aV04:56
p63
aV05:35
p64
aV06:07
p65
aV06:45
p66
aV07:39
p67
aV08:59
p68
aV09:59
p69
aV11:29
p70
aa(lp71
VForest Hills
p72
aV07:17
p73
ag57
aV09:18
p74
aV10:08
p75
aV12:05
p76
aV02:07
p77
aV03:15
p78
aV04:20
p79
aV05:02
p80
aV05:41
p81
aV06:13
p82
aV06:51
p83
aV07:45
p84
aV09:05
p85
aV10:05
p86
aV11:35
p87
aa(lp88
VRoslindale Village
p89
aV07:20
p90
ag57
aV09:21
p91
aV10:11
p92
aV12:08
p93
aV02:10
p94
aV03:18
p95
aV04:25
p96
aV05:07
p97
aV05:47
p98
aV06:18
p99
aV06:56
p100
aV07:48
p101
aV09:08
p102
aV10:08
p103
aV11:38
p104
aa(lp105
VBellevue
p106
aV07:23
p107
ag57
aV09:24
p108
aV10:14
p109
aV12:11
p110
aV02:13
p111
aV03:21
p112
aV04:28
p113
aV05:10
p114
aV05:50
p115
aV06:21
p116
aV06:59
p117
aV07:51
p118
aV09:11
p119
aV10:11
p120
aV11:41
p121
aa(lp122
VHighland
p123
aV07:25
p124
ag57
aV09:26
p125
aV10:16
p126
aV12:13
p127
aV02:15
p128
aV03:23
p129
aV04:30
p130
aV05:12
p131
aV05:52
p132
aV06:23
p133
aV07:01
p134
aV07:53
p135
aV09:13
p136
aV10:13
p137
aV11:43
p138
aa(lp139
VWest Roxbury
p140
aV07:27
p141
aV08:09
p142
aV09:29
p143
aV10:18
p144
aV12:15
p145
aV02:17
p146
aV03:25
p147
aV04:32
p148
aV05:14
p149
aV05:54
p150
aV06:25
p151
aV07:03
p152
aV07:55
p153
aV09:15
p154
aV10:15
p155
aV11:45
p156
aa(lp157
VHersey
p158
aV07:32
p159
ag57
aV09:34
p160
aV10:25
p161
aV12:20
p162
aV02:22
p163
aV03:30
p164
aV04:37
p165
aV05:20
p166
aV06:00
p167
aV06:30
p168
aV07:08
p169
aV08:00
p170
aV09:20
p171
aV10:20
p172
aV11:50
p173
aa(lp174
VNeedham Junction
p175
aV07:44
p176
aV08:25
p177
aV09:36
p178
aV10:28
p179
aV12:23
p180
aV02:25
p181
aV03:34
p182
aV04:41
p183
aV05:24
p184
aV06:04
p185
aV06:37
p186
aV07:12
p187
aV08:03
p188
aV09:23
p189
aV10:23
p190
aV11:53
p191
aa(lp192
VNeedham Center
p193
aV07:47
p194
aV08:28
p195
aV09:39
p196
aV10:31
p197
aV12:26
p198
aV02:28
p199
aV03:37
p200
aV04:44
p201
aV05:27
p202
aV06:07
p203
aV06:40
p204
aV07:15
p205
aV08:06
p206
aV09:26
p207
aV10:26
p208
aV11:56
p209
aa(lp210
VNeedham Heights
p211
aV07:51
p212
aV08:32
p213
aV09:43
p214
aV10:35
p215
aV12:30
p216
aV02:33
p217
aV03:42
p218
aV04:49
p219
aV05:32
p220
aV06:12
p221
aV06:45
p222
aV07:20
p223
aV08:10
p224
aV09:30
p225
aV10:30
p226
aV12:00
p227
aa.