(lp0
(lp1
VTrain Number
p2
aV1601\u000aAM
p3
aV1603\u000aAM
p4
aV1605\u000aAM
p5
aV1607\u000aPM
p6
aV1609\u000aPM
p7
aV1611\u000aPM
p8
aV1613\u000aPM
p9
aV1615\u000aPM
p10
aV1617\u000aPM
p11
aa(lp12
VSouth Station
p13
aV07:10
p14
aV09:10
p15
aV11:10
p16
aV01:10
p17
aV03:10
p18
aV05:10
p19
aV07:10
p20
aV09:10
p21
aV10:45
p22
aa(lp23
VBack Bay
p24
aV07:15
p25
aV09:15
p26
aV11:15
p27
aV01:15
p28
aV03:15
p29
aV05:15
p30
aV07:15
p31
aV09:15
p32
aV10:50
p33
aa(lp34
VRuggles
p35
aV07:18
p36
aV09:18
p37
aV11:18
p38
aV01:18
p39
aV03:18
p40
aV05:18
p41
aV07:18
p42
aV09:18
p43
aV10:54
p44
aa(lp45
VForest Hills
p46
aV07:24
p47
aV09:24
p48
aV11:24
p49
aV01:24
p50
aV03:24
p51
aV05:24
p52
aV07:24
p53
aV09:24
p54
aV11:00
p55
aa(lp56
VRoslindale Village
p57
aV07:28
p58
aV09:28
p59
aV11:28
p60
aV01:28
p61
aV03:28
p62
aV05:28
p63
aV07:28
p64
aV09:28
p65
aV11:03
p66
aa(lp67
VBellevue
p68
aV07:30
p69
aV09:30
p70
aV11:30
p71
aV01:30
p72
aV03:30
p73
aV05:30
p74
aV07:30
p75
aV09:30
p76
aV11:06
p77
aa(lp78
VHighland
p79
aV07:33
p80
aV09:33
p81
aV11:33
p82
aV01:33
p83
aV03:33
p84
aV05:33
p85
aV07:33
p86
aV09:33
p87
aV11:08
p88
aa(lp89
VWest Roxbury
p90
aV07:35
p91
aV09:35
p92
aV11:35
p93
aV01:35
p94
aV03:35
p95
aV05:35
p96
aV07:35
p97
aV09:35
p98
aV11:10
p99
aa(lp100
VHersey
p101
aV07:39
p102
aV09:39
p103
aV11:39
p104
aV01:39
p105
aV03:39
p106
aV05:39
p107
aV07:39
p108
aV09:39
p109
aV11:15
p110
aa(lp111
VNeedham Junction
p112
aV07:42
p113
aV09:42
p114
aV11:42
p115
aV01:42
p116
aV03:42
p117
aV05:42
p118
aV07:42
p119
aV09:42
p120
aV11:18
p121
aa(lp122
VNeedham Center
p123
aV07:46
p124
aV09:46
p125
aV11:46
p126
aV01:46
p127
aV03:46
p128
aV05:46
p129
aV07:46
p130
aV09:46
p131
aV11:21
p132
aa(lp133
VNeedham Heights
p134
aV07:50
p135
aV09:50
p136
aV11:50
p137
aV01:50
p138
aV03:50
p139
aV05:50
p140
aV07:50
p141
aV09:50
p142
aV11:25
p143
aa.