(lp0
(lp1
VTrain Number
p2
aV1602\u000aAM
p3
aV1604\u000aAM
p4
aV1606\u000aPM
p5
aV1608\u000aPM
p6
aV1610\u000aPM
p7
aV1612\u000aPM
p8
aV1614\u000aPM
p9
aV1616\u000aPM
p10
aV1618\u000aPM
p11
aa(lp12
VNeedham Heights
p13
aV08:00
p14
aV10:00
p15
aV12:00
p16
aV02:00
p17
aV04:00
p18
aV06:00
p19
aV08:00
p20
aV10:00
p21
aV11:35
p22
aa(lp23
VNeedham Center
p24
aV08:05
p25
aV10:05
p26
aV12:05
p27
aV02:05
p28
aV04:05
p29
aV06:05
p30
aV08:05
p31
aV10:05
p32
aV 
p33
aa(lp34
VNeedham Junction
p35
aV08:08
p36
aV10:08
p37
aV12:08
p38
aV02:08
p39
aV04:08
p40
aV06:08
p41
aV08:08
p42
aV10:08
p43
ag33
aa(lp44
VHersey
p45
aV08:11
p46
aV10:11
p47
aV12:11
p48
aV02:11
p49
aV04:11
p50
aV06:11
p51
aV08:11
p52
aV10:11
p53
ag33
aa(lp54
VWest Roxbury
p55
aV08:16
p56
aV10:16
p57
aV12:16
p58
aV02:16
p59
aV04:16
p60
aV06:16
p61
aV08:16
p62
aV10:16
p63
ag33
aa(lp64
VHighland
p65
aV08:18
p66
aV10:18
p67
aV12:18
p68
aV02:18
p69
aV04:18
p70
aV06:18
p71
aV08:18
p72
aV10:18
p73
ag33
aa(lp74
VBellevue
p75
aV08:20
p76
aV10:20
p77
aV12:20
p78
aV02:20
p79
aV04:20
p80
aV06:20
p81
aV08:20
p82
aV10:20
p83
ag33
aa(lp84
VRoslindale Village
p85
aV08:22
p86
aV10:22
p87
aV12:22
p88
aV02:22
p89
aV04:22
p90
aV06:22
p91
aV08:22
p92
aV10:22
p93
ag33
aa(lp94
VForest Hills
p95
aV08:26
p96
aV10:26
p97
aV12:26
p98
aV02:26
p99
aV04:26
p100
aV06:26
p101
aV08:26
p102
aV10:26
p103
ag33
aa(lp104
VRuggles
p105
aV08:30
p106
aV10:30
p107
aV12:30
p108
aV02:30
p109
aV04:30
p110
aV06:30
p111
aV08:30
p112
aV10:30
p113
ag33
aa(lp114
VBack Bay
p115
aV08:34
p116
aV10:34
p117
aV12:34
p118
aV02:34
p119
aV04:34
p120
aV06:34
p121
aV08:34
p122
aV10:34
p123
aV11:55
p124
aa(lp125
VSouth Station
p126
aV08:39
p127
aV10:39
p128
aV12:39
p129
aV02:39
p130
aV04:39
p131
aV06:39
p132
aV08:39
p133
aV10:39
p134
aV12:00
p135
aa.