(lp0
(lp1
VTrain Number
p2
aV600\u000aAM
p3
aV602\u000aAM
p4
aV604\u000aAM
p5
aV606\u000aAM
p6
aV608\u000aAM
p7
aV610\u000aAM
p8
aV612\u000aAM
p9
aV614\u000aPM
p10
aV616\u000aPM
p11
aV618\u000aPM
p12
aV620\u000aPM
p13
aV622\u000aPM
p14
aV624\u000aPM
p15
aV626\u000aPM
p16
aV628\u000aPM
p17
aV630\u000aPM
p18
aa(lp19
VNeedham Heights
p20
aV06:05
p21
aV06:40
p22
aV07:32
p23
aV08:02
p24
aV08:45
p25
aV10:05
p26
aV11:05
p27
aV12:50
p28
aV02:50
p29
aV03:55
p30
aV05:04
p31
aV05:44
p32
aV06:25
p33
aV07:50
p34
aV08:37
p35
aV10:02
p36
aa(lp37
VNeedham Center
p38
aV06:09
p39
aV06:44
p40
aV07:36
p41
aV08:06
p42
aV08:49
p43
aV10:09
p44
aV11:09
p45
aV12:54
p46
aV02:54
p47
aV03:59
p48
aV 
p49
aV05:48
p50
aV06:29
p51
aV07:54
p52
aV08:41
p53
aV10:06
p54
aa(lp55
VNeedham Junction
p56
aV06:14
p57
aV06:49
p58
aV07:41
p59
aV08:11
p60
aV08:54
p61
aV10:13
p62
aV11:13
p63
aV12:58
p64
aV02:58
p65
aV04:03
p66
ag49
aV05:52
p67
aV06:33
p68
aV07:58
p69
aV08:45
p70
aV10:10
p71
aa(lp72
VHersey
p73
aV06:17
p74
aV06:52
p75
aV07:44
p76
aV08:15
p77
aV08:57
p78
aV10:16
p79
aV11:16
p80
aV01:01
p81
aV03:01
p82
ag49
ag49
ag49
aV06:36
p83
aV08:03
p84
aV08:48
p85
aV10:13
p86
aa(lp87
VWest Roxbury
p88
aV06:23
p89
aV06:58
p90
aV07:50
p91
aV08:21
p92
aV09:03
p93
aV10:21
p94
aV11:21
p95
aV01:06
p96
aV03:06
p97
aV04:09
p98
aV05:18
p99
aV05:59
p100
aV06:41
p101
aV08:08
p102
aV08:53
p103
aV10:23
p104
aa(lp105
VHighland
p106
aV06:26
p107
aV07:01
p108
aV07:53
p109
aV08:24
p110
aV09:06
p111
aV10:23
p112
aV11:23
p113
aV01:08
p114
aV03:08
p115
ag49
aV05:20
p116
ag49
aV06:43
p117
aV08:10
p118
aV08:55
p119
aV10:25
p120
aa(lp121
VBellevue
p122
aV06:30
p123
aV07:05
p124
aV07:57
p125
aV08:26
p126
aV09:10
p127
aV10:25
p128
aV11:25
p129
aV01:10
p130
aV03:10
p131
ag49
aV05:22
p132
ag49
aV06:45
p133
aV08:12
p134
aV08:57
p135
aV10:27
p136
aa(lp137
VRoslindale Village
p138
aV06:33
p139
aV07:08
p140
aV08:00
p141
aV08:30
p142
aV09:13
p143
aV10:28
p144
aV11:28
p145
aV01:13
p146
aV03:13
p147
ag49
aV05:25
p148
ag49
aV06:48
p149
aV08:15
p150
aV09:00
p151
aV10:30
p152
aa(lp153
VForest Hills
p154
aV06:36
p155
aV07:11
p156
aV08:03
p157
aV08:33
p158
aV09:16
p159
aV10:31
p160
aV11:31
p161
aV01:16
p162
aV03:16
p163
ag49
aV05:28
p164
ag49
aV06:53
p165
aV08:18
p166
aV09:03
p167
aV10:33
p168
aa(lp169
VRuggles
p170
aV06:41
p171
aV07:16
p172
aV08:08
p173
aV08:38
p174
aV09:21
p175
aV10:36
p176
aV11:36
p177
aV01:21
p178
ag49
ag49
ag49
ag49
ag49
aV08:23
p179
aV09:08
p180
aV10:38
p181
aa(lp182
VBack Bay
p183
aV06:45
p184
aV07:20
p185
aV08:12
p186
aV08:42
p187
aV09:25
p188
aV10:40
p189
aV11:40
p190
aV01:25
p191
aV03:24
p192
aV04:22
p193
aV05:40
p194
aV06:17
p195
aV07:03
p196
aV08:27
p197
aV09:12
p198
aV10:42
p199
aa(lp200
VSouth Station
p201
aV06:50
p202
aV07:25
p203
aV08:18
p204
aV08:47
p205
aV09:30
p206
aV10:45
p207
aV11:45
p208
aV01:30
p209
aV03:29
p210
aV04:27
p211
aV05:45
p212
aV06:22
p213
aV07:08
p214
aV08:32
p215
aV09:17
p216
aV10:47
p217
aa.