(lp0
(lp1
VTrain Number
p2
aV2806\u000aAM
p3
aV2808\u000aPM
p4
aV2810\u000aPM
p5
aV2812\u000aPM
p6
aV2814\u000aPM
p7
aV2816\u000aPM
p8
aV2818\u000aPM
p9
aa(lp10
VProvidence
p11
aV11:20
p12
aV12:55
p13
aV02:56
p14
aV04:56
p15
aV07:05
p16
aV08:52
p17
aV10:00
p18
aa(lp19
VSouth Attleboro
p20
aV11:30
p21
aV01:05
p22
aV03:06
p23
aV05:06
p24
aV07:15
p25
aV09:02
p26
aV10:10
p27
aa(lp28
VAttleboro
p29
aV11:38
p30
aV01:13
p31
aV03:14
p32
aV05:14
p33
aV07:23
p34
aV09:10
p35
aV10:18
p36
aa(lp37
VMansfield
p38
aV11:45
p39
aV01:20
p40
aV03:24
p41
aV05:24
p42
aV07:30
p43
aV09:20
p44
aV10:25
p45
aa(lp46
VSharon
p47
aV11:53
p48
aV01:28
p49
aV03:32
p50
aV05:32
p51
aV07:38
p52
aV09:28
p53
aV10:33
p54
aa(lp55
VCanton Junction
p56
aV12:00
p57
aV01:35
p58
aV03:39
p59
aV05:39
p60
aV07:45
p61
aV09:35
p62
aV10:40
p63
aa(lp64
VRoute 128
p65
aV12:05
p66
aV01:40
p67
aV03:44
p68
aV05:44
p69
aV07:50
p70
aV09:40
p71
aV10:45
p72
aa(lp73
VHyde Park
p74
aV12:10
p75
aV01:45
p76
aV03:49
p77
aV05:49
p78
aV07:55
p79
aV09:45
p80
aV10:50
p81
aa(lp82
VRuggles
p83
aV12:22
p84
aV01:55
p85
aV03:59
p86
aV05:59
p87
aV08:05
p88
aV09:55
p89
aV11:00
p90
aa(lp91
VBack Bay
p92
aV12:25
p93
aV01:58
p94
aV04:02
p95
aV06:02
p96
aV08:08
p97
aV09:58
p98
aV11:03
p99
aa(lp100
VSouth Station
p101
aV12:30
p102
aV02:03
p103
aV04:07
p104
aV06:07
p105
aV08:13
p106
aV10:03
p107
aV11:08
p108
aa.