(lp0
(lp1
VTrain Number
p2
aV8801\u000aAM
p3
aV901\u000aAM
p4
aV8803\u000aAM
p5
aV801\u000aAM
p6
aV843\u000aAM
p7
aV8805\u000aAM
p8
aV803\u000aAM
p9
aV903\u000aAM
p10
aV805\u000aAM
p11
aV905\u000aAM
p12
aV907\u000aAM
p13
aV807\u000aAM
p14
aV909\u000aAM
p15
aV809\u000aAM
p16
aV811\u000aAM
p17
aV911\u000aPM
p18
aV813\u000aPM
p19
aV815\u000aPM
p20
aV817\u000aPM
p21
aV913\u000aPM
p22
aV819\u000aPM
p23
aV915\u000aPM
p24
aV821\u000aPM
p25
aV823\u000aPM
p26
aV917\u000aPM
p27
aV825\u000aPM
p28
aV919\u000aPM
p29
aV827\u000aPM
p30
aV921\u000aPM
p31
aV829\u000aPM
p32
aV923\u000aPM
p33
aV831\u000aPM
p34
aV833\u000aPM
p35
aV925\u000aPM
p36
aV835\u000aPM
p37
aV927\u000aPM
p38
aV837\u000aPM
p39
aV839\u000aPM
p40
aa(lp41
VSouth Station
p42
aV 
p43
aV05:20
p44
ag43
aV05:30
p45
aV06:18
p46
ag43
aV06:31
p47
aV06:59
p48
aV07:25
p49
aV07:35
p50
aV08:23
p51
aV09:35
p52
aV09:45
p53
aV10:25
p54
aV11:25
p55
aV01:20
p56
aV01:43
p57
aV02:30
p58
aV03:25
p59
aV03:35
p60
aV03:55
p61
aV04:20
p62
aV04:30
p63
aV04:55
p64
aV05:12
p65
aV05:40
p66
aV05:50
p67
aV06:10
p68
aV06:30
p69
aV06:50
p70
aV07:20
p71
aV07:30
p72
aV08:30
p73
aV09:40
p74
aV10:00
p75
aV10:40
p76
aV11:00
p77
aV11:59
p78
aa(lp79
VBack Bay
p80
ag43
aV05:25
p81
ag43
aV05:35
p82
aV06:23
p83
ag43
aV06:36
p84
aV07:04
p85
aV07:30
p86
aV07:40
p87
aV08:28
p88
aV09:40
p89
aV09:50
p90
aV10:30
p91
aV11:30
p92
aV01:25
p93
aV01:48
p94
aV02:35
p95
aV03:30
p96
aV03:40
p97
aV04:00
p98
aV04:25
p99
aV04:35
p100
aV05:00
p101
aV05:17
p102
aV05:45
p103
aV05:55
p104
aV06:15
p105
aV06:35
p106
aV06:55
p107
aV07:25
p108
aV07:35
p109
aV08:35
p110
aV09:45
p111
aV10:05
p112
aV10:45
p113
aV11:05
p114
aV12:04
p115
aa(lp116
VRuggles
p117
ag43
ag43
ag43
ag43
ag43
ag43
aV06:39
p118
ag43
aV07:33
p119
ag43
ag43
aV09:44
p120
aV09:53
p121
aV10:33
p122
aV11:33
p123
aV01:28
p124
aV01:52
p125
aV02:38
p126
aV03:34
p127
aV03:43
p128
aV04:04
p129
aV04:29
p130
aV04:39
p131
aV05:04
p132
aV05:21
p133
aV05:49
p134
aV05:59
p135
aV06:19
p136
aV06:39
p137
aV06:58
p138
aV07:28
p139
aV07:38
p140
aV08:38
p141
aV09:48
p142
aV10:08
p143
aV10:48
p144
aV11:08
p145
aV12:07
p146
aa(lp147
VHyde Park
p148
ag43
ag43
ag43
ag43
ag43
ag43
ag43
ag43
ag43
ag43
ag43
ag43
aV10:01
p149
aV10:43
p150
ag43
aV01:38
p151
ag43
ag43
ag43
aV03:53
p152
ag43
ag43
ag43
ag43
aV05:32
p153
ag43
aV06:09
p154
ag43
aV06:49
p155
aV07:08
p156
aV07:38
p157
ag43
aV08:46
p158
ag43
aV10:18
p159
aV10:58
p160
aV11:18
p161
aV12:17
p162
aa(lp163
VRoute 128
p164
ag43
aV05:37
p165
ag43
aV05:49
p166
aV06:37
p167
ag43
aV06:51
p168
aV07:19
p169
aV07:45
p170
aV07:55
p171
aV08:43
p172
aV09:56
p173
aV10:08
p174
aV10:48
p175
aV11:45
p176
aV01:43
p177
aV02:04
p178
aV02:51
p179
ag43
aV03:58
p180
ag43
aV04:42
p181
aV04:53
p182
aV05:18
p183
aV05:43
p184
ag43
aV06:15
p185
ag43
aV06:54
p186
aV07:13
p187
aV07:43
p188
aV07:52
p189
aV08:51
p190
aV10:02
p191
aV10:23
p192
aV11:03
p193
aV11:23
p194
aV12:22
p195
aa(lp196
VCanton Junction
p197
ag43
ag43
ag43
ag43
ag43
ag43
aV06:56
p198
aV07:25
p199
aV07:51
p200
aV08:01
p201
aV08:49
p202
aV10:02
p203
aV10:14
p204
aV10:54
p205
ag43
aV01:49
p206
ag43
aV02:57
p207
ag43
aV04:04
p208
ag43
aV04:48
p209
ag43
ag43
aV05:49
p210
ag43
aV06:22
p211
ag43
aV07:00
p212
aV07:19
p213
aV07:49
p214
aV07:58
p215
aV08:57
p216
aV10:08
p217
aV10:29
p218
aV11:09
p219
aV11:29
p220
aV12:28
p221
aa(lp222
VCanton Center
p223
ag43
aV05:45
p224
ag43
ag43
ag43
ag43
ag43
aV07:28
p225
ag43
aV08:04
p226
aV08:52
p227
ag43
aV10:17
p228
ag43
ag43
aV01:52
p229
ag43
ag43
ag43
aV04:07
p230
ag43
aV04:51
p231
ag43
ag43
aV05:52
p232
ag43
aV06:26
p233
ag43
aV07:03
p234
ag43
aV07:52
p235
ag43
ag43
aV10:11
p236
ag43
aV11:12
p237
ag43
ag43
aa(lp238
VStoughton
p239
ag43
aV05:53
p240
ag43
ag43
ag43
ag43
ag43
aV07:36
p241
ag43
aV08:12
p242
aV09:00
p243
ag43
aV10:25
p244
ag43
ag43
aV02:00
p245
ag43
ag43
ag43
aV04:15
p246
ag43
aV04:59
p247
ag43
ag43
aV06:00
p248
ag43
aV06:34
p249
ag43
aV07:11
p250
ag43
aV08:00
p251
ag43
ag43
aV10:19
p252
ag43
aV11:20
p253
ag43
ag43
aa(lp254
VSharon
p255
ag43
ag43
ag43
aV05:57
p256
ag43
ag43
aV07:02
p257
ag43
aV07:57
p258
ag43
ag43
aV10:08
p259
ag43
aV11:00
p260
aV11:53
p261
ag43
aV02:12
p262
aV03:03
p263
aV03:51
p264
ag43
aV04:22
p265
ag43
aV05:01
p266
aV05:26
p267
ag43
aV06:07
p268
ag43
aV06:37
p269
ag43
aV07:25
p270
ag43
aV08:04
p271
aV09:03
p272
ag43
aV10:35
p273
ag43
aV11:35
p274
aV12:34
p275
aa(lp276
VMansfield
p277
ag43
ag43
ag43
aV06:04
p278
ag43
ag43
aV07:09
p279
ag43
aV08:05
p280
ag43
ag43
aV10:16
p281
ag43
aV11:08
p282
aV12:00
p283
ag43
aV02:20
p284
aV03:11
p285
aV03:59
p286
ag43
aV04:30
p287
ag43
aV05:09
p288
aV05:34
p289
ag43
aV06:15
p290
ag43
aV06:45
p291
ag43
aV07:33
p292
ag43
aV08:12
p293
aV09:11
p294
ag43
aV10:43
p295
ag43
aV11:43
p296
aV12:42
p297
aa(lp298
VAttleboro
p299
ag43
ag43
ag43
aV06:12
p300
aV06:55
p301
ag43
aV07:17
p302
ag43
aV08:13
p303
ag43
ag43
aV10:24
p304
ag43
aV11:16
p305
aV12:08
p306
ag43
aV02:28
p307
aV03:19
p308
aV04:07
p309
ag43
aV04:38
p310
ag43
aV05:17
p311
aV05:44
p312
ag43
aV06:23
p313
ag43
aV06:53
p314
ag43
aV07:41
p315
ag43
aV08:20
p316
aV09:19
p317
ag43
aV10:51
p318
ag43
aV11:51
p319
aV12:50
p320
aa(lp321
VSouth Attleboro
p322
ag43
ag43
ag43
aV06:21
p323
ag43
ag43
aV07:26
p324
ag43
aV08:20
p325
ag43
ag43
aV10:34
p326
ag43
aV11:26
p327
aV12:17
p328
ag43
aV02:35
p329
aV03:29
p330
aV04:17
p331
ag43
aV04:48
p332
ag43
aV05:27
p333
aV05:57
p334
ag43
aV06:33
p335
ag43
aV07:03
p336
ag43
aV07:51
p337
ag43
aV08:30
p338
aV09:29
p339
ag43
aV11:01
p340
ag43
aV12:01
p341
aV01:00
p342
aa(lp343
VProvidence
p344
aV04:58
p345
ag43
aV05:49
p346
aV06:30
p347
ag43
aV06:55
p348
aV07:35
p349
ag43
aV08:29
p350
ag43
ag43
aV10:44
p351
ag43
aV11:36
p352
aV12:26
p353
ag43
aV02:45
p354
aV03:39
p355
aV04:27
p356
ag43
aV04:58
p357
ag43
aV05:37
p358
aV06:07
p359
ag43
aV06:43
p360
ag43
aV07:13
p361
ag43
aV08:01
p362
ag43
aV08:40
p363
aV09:39
p364
ag43
aV11:11
p365
ag43
aV12:11
p366
aV01:10
p367
aa(lp368
VTF Green Airport
p369
aV05:14
p370
ag43
aV06:07
p371
ag43
ag43
aV07:11
p372
ag43
ag43
aV08:45
p373
ag43
ag43
ag43
ag43
ag43
aV12:42
p374
ag43
ag43
ag43
aV04:43
p375
ag43
ag43
ag43
aV05:53
p376
ag43
ag43
aV06:59
p377
ag43
ag43
ag43
aV08:17
p378
ag43
ag43
ag43
ag43
aV11:27
p379
ag43
ag43
ag43
aa(lp380
VWickford Junction
p381
aV05:30
p382
ag43
aV06:21
p383
ag43
ag43
aV07:27
p384
ag43
ag43
aV09:01
p385
ag43
ag43
ag43
ag43
ag43
aV12:58
p386
ag43
ag43
ag43
aV04:59
p387
ag43
ag43
ag43
aV06:09
p388
ag43
ag43
aV07:15
p389
ag43
ag43
ag43
aV08:33
p390
ag43
ag43
ag43
ag43
aV11:43
p391
ag43
ag43
ag43
aa.