(lp0
(lp1
VTrain Number
p2
aV1802\u000aAM
p3
aV1804\u000aAM
p4
aV1806\u000aAM
p5
aV1808\u000aPM
p6
aV1810\u000aPM
p7
aV1812\u000aPM
p8
aV1814\u000aPM
p9
aV1816\u000aPM
p10
aV1818\u000aPM
p11
aa(lp12
VProvidence
p13
aV06:35
p14
aV08:35
p15
aV11:20
p16
aV12:55
p17
aV02:56
p18
aV04:56
p19
aV07:05
p20
aV08:52
p21
aV10:00
p22
aa(lp23
VSouth Attleboro
p24
aV06:45
p25
aV08:45
p26
aV11:30
p27
aV01:05
p28
aV03:06
p29
aV05:06
p30
aV07:15
p31
aV09:02
p32
aV10:10
p33
aa(lp34
VAttleboro
p35
aV06:53
p36
aV08:53
p37
aV11:38
p38
aV01:13
p39
aV03:14
p40
aV05:14
p41
aV07:23
p42
aV09:10
p43
aV10:18
p44
aa(lp45
VMansfield
p46
aV07:00
p47
aV09:00
p48
aV11:45
p49
aV01:20
p50
aV03:24
p51
aV05:24
p52
aV07:30
p53
aV09:20
p54
aV10:25
p55
aa(lp56
VSharon
p57
aV07:08
p58
aV09:08
p59
aV11:53
p60
aV01:28
p61
aV03:32
p62
aV05:32
p63
aV07:38
p64
aV09:28
p65
aV10:33
p66
aa(lp67
VCanton Junction
p68
aV07:15
p69
aV09:15
p70
aV12:00
p71
aV01:35
p72
aV03:39
p73
aV05:39
p74
aV07:45
p75
aV09:35
p76
aV10:40
p77
aa(lp78
VRoute 128
p79
aV07:20
p80
aV09:20
p81
aV12:05
p82
aV01:40
p83
aV03:44
p84
aV05:44
p85
aV07:50
p86
aV09:40
p87
aV10:45
p88
aa(lp89
VHyde Park
p90
aV07:25
p91
aV09:25
p92
aV12:10
p93
aV01:45
p94
aV03:49
p95
aV05:49
p96
aV07:55
p97
aV09:45
p98
aV10:50
p99
aa(lp100
VRuggles
p101
aV07:35
p102
aV09:35
p103
aV12:22
p104
aV01:55
p105
aV03:59
p106
aV05:59
p107
aV08:05
p108
aV09:55
p109
aV11:00
p110
aa(lp111
VBack Bay
p112
aV07:38
p113
aV09:38
p114
aV12:25
p115
aV01:58
p116
aV04:02
p117
aV06:02
p118
aV08:08
p119
aV09:58
p120
aV11:03
p121
aa(lp122
VSouth Station
p123
aV07:43
p124
aV09:43
p125
aV12:30
p126
aV02:03
p127
aV04:07
p128
aV06:07
p129
aV08:13
p130
aV10:03
p131
aV11:08
p132
aa.