(lp0
(lp1
VTrain Number
p2
aV800\u000aAM
p3
aV802\u000aAM
p4
aV900\u000aAM
p5
aV804\u000aAM
p6
aV902\u000aAM
p7
aV806\u000aAM
p8
aV842\u000aAM
p9
aV808\u000aAM
p10
aV904\u000aAM
p11
aV810\u000aAM
p12
aV812\u000aAM
p13
aV906\u000aAM
p14
aV814\u000aAM
p15
aV908\u000aAM
p16
aV816\u000aAM
p17
aV910\u000aAM
p18
aV818\u000aAM
p19
aV820\u000aPM
p20
aV912\u000aPM
p21
aV822\u000aPM
p22
aV824\u000aPM
p23
aV914\u000aPM
p24
aV826\u000aPM
p25
aV916\u000aPM
p26
aV828\u000aPM
p27
aV918\u000aPM
p28
aV830\u000aPM
p29
aV920\u000aPM
p30
aV922\u000aPM
p31
aV832\u000aPM
p32
aV924\u000aPM
p33
aV834\u000aPM
p34
aV836\u000aPM
p35
aV926\u000aPM
p36
aV838\u000aPM
p37
aV928\u000aPM
p38
aa(lp39
VWickford Junction
p40
aV 
p41
aV04:45
p42
ag41
ag41
ag41
aV05:45
p43
ag41
aV06:35
p44
ag41
ag41
ag41
ag41
aV07:45
p45
ag41
aV09:20
p46
ag41
ag41
ag41
ag41
aV01:25
p47
ag41
ag41
ag41
ag41
ag41
ag41
aV05:30
p48
ag41
ag41
aV06:55
p49
ag41
aV07:45
p50
aV08:53
p51
ag41
ag41
ag41
aa(lp52
VTF Green Airport
p53
ag41
aV05:00
p54
ag41
ag41
ag41
aV06:00
p55
ag41
aV06:50
p56
ag41
ag41
ag41
ag41
aV08:00
p57
ag41
aV09:34
p58
ag41
ag41
ag41
ag41
aV01:39
p59
ag41
ag41
ag41
ag41
ag41
ag41
aV05:44
p60
ag41
ag41
aV07:09
p61
ag41
aV07:59
p62
aV09:07
p63
ag41
ag41
ag41
aa(lp64
VProvidence
p65
aV05:00
p66
aV05:25
p67
ag41
aV06:00
p68
ag41
aV06:25
p69
ag41
aV07:15
p70
ag41
aV07:30
p71
aV07:50
p72
ag41
aV08:25
p73
ag41
aV09:50
p74
ag41
aV11:10
p75
aV01:00
p76
ag41
aV01:55
p77
aV03:02
p78
ag41
aV04:08
p79
ag41
aV05:20
p80
ag41
aV06:00
p81
ag41
ag41
aV07:25
p82
ag41
aV08:15
p83
aV09:23
p84
ag41
aV10:30
p85
ag41
aa(lp86
VSouth Attleboro
p87
aV05:09
p88
aV05:34
p89
ag41
aV06:09
p90
ag41
aV06:34
p91
ag41
aV07:25
p92
ag41
aV07:39
p93
aV07:59
p94
ag41
aV08:34
p95
ag41
aV09:59
p96
ag41
aV11:19
p97
aV01:11
p98
ag41
aV02:06
p99
aV03:13
p100
ag41
aV04:20
p101
ag41
aV05:29
p102
ag41
aV06:09
p103
ag41
ag41
aV07:34
p104
ag41
aV08:24
p105
aV09:34
p106
ag41
aV10:39
p107
ag41
aa(lp108
VAttleboro
p109
aV05:19
p110
aV05:44
p111
ag41
aV06:19
p112
ag41
aV06:44
p113
aV07:12
p114
aV07:35
p115
ag41
aV07:49
p116
aV08:09
p117
ag41
aV08:44
p118
ag41
aV10:09
p119
ag41
aV11:29
p120
aV01:21
p121
ag41
aV02:16
p122
aV03:23
p123
ag41
aV04:30
p124
ag41
aV05:39
p125
ag41
aV06:19
p126
ag41
ag41
aV07:44
p127
ag41
aV08:34
p128
aV09:44
p129
ag41
aV10:49
p130
ag41
aa(lp131
VMansfield
p132
aV05:29
p133
aV05:54
p134
ag41
aV06:29
p135
ag41
aV06:54
p136
aV07:22
p137
aV07:45
p138
ag41
aV07:59
p139
aV08:19
p140
ag41
aV08:54
p141
ag41
aV10:19
p142
ag41
aV11:39
p143
aV01:31
p144
ag41
aV02:26
p145
aV03:33
p146
ag41
aV04:40
p147
ag41
aV05:48
p148
ag41
aV06:28
p149
ag41
ag41
aV07:54
p150
ag41
aV08:44
p151
aV09:54
p152
ag41
aV10:59
p153
ag41
aa(lp154
VSharon
p155
aV05:38
p156
aV06:03
p157
ag41
aV06:39
p158
ag41
aV07:04
p159
aV07:33
p160
ag41
ag41
aV08:08
p161
aV08:28
p162
ag41
aV09:03
p163
ag41
aV10:28
p164
ag41
aV11:48
p165
aV01:40
p166
ag41
aV02:35
p167
aV03:42
p168
ag41
aV04:49
p169
ag41
aV05:55
p170
ag41
aV06:37
p171
ag41
ag41
aV08:03
p172
ag41
aV08:53
p173
aV10:03
p174
ag41
aV11:08
p175
ag41
aa(lp176
VStoughton
p177
ag41
ag41
aV06:20
p178
ag41
aV06:45
p179
ag41
ag41
ag41
aV07:50
p180
ag41
ag41
aV08:30
p181
ag41
aV09:15
p182
ag41
aV10:40
p183
ag41
ag41
aV02:15
p184
ag41
ag41
aV04:30
p185
ag41
aV05:15
p186
ag41
aV06:14
p187
ag41
aV07:20
p188
aV07:40
p189
ag41
aV08:35
p190
ag41
ag41
aV10:35
p191
ag41
aV11:35
p192
aa(lp193
VCanton Center
p194
ag41
ag41
aV06:28
p195
ag41
aV06:53
p196
ag41
ag41
ag41
aV07:58
p197
ag41
ag41
aV08:38
p198
ag41
aV09:23
p199
ag41
aV10:48
p200
ag41
ag41
aV02:23
p201
ag41
ag41
aV04:38
p202
ag41
aV05:23
p203
ag41
aV06:22
p204
ag41
aV07:28
p205
ag41
ag41
aV08:43
p206
ag41
ag41
aV10:43
p207
ag41
aV11:43
p208
aa(lp209
VCanton Junction
p210
aV05:45
p211
aV06:10
p212
aV06:31
p213
ag41
aV06:56
p214
ag41
aV07:40
p215
ag41
aV08:01
p216
ag41
ag41
aV08:41
p217
aV09:10
p218
aV09:26
p219
ag41
aV10:51
p220
aV11:55
p221
aV01:47
p222
aV02:26
p223
ag41
aV03:50
p224
ag41
aV04:56
p225
aV05:26
p226
ag41
aV06:24
p227
ag41
aV07:32
p228
ag41
aV08:10
p229
aV08:46
p230
aV09:00
p231
aV10:10
p232
aV10:46
p233
aV11:15
p234
aV11:46
p235
aa(lp236
VRoute 128
p237
aV05:50
p238
aV06:15
p239
aV06:37
p240
aV06:47
p241
aV07:02
p242
aV07:12
p243
aV07:45
p244
ag41
aV08:06
p245
aV08:16
p246
aV08:36
p247
aV08:46
p248
aV09:15
p249
aV09:31
p250
aV10:37
p251
aV10:56
p252
aV12:00
p253
aV01:52
p254
aV02:31
p255
aV02:43
p256
aV03:55
p257
aV04:47
p258
aV05:01
p259
aV05:31
p260
aV06:03
p261
aV06:29
p262
aV06:45
p263
aV07:37
p264
ag41
aV08:15
p265
aV08:51
p266
aV09:05
p267
aV10:15
p268
aV10:51
p269
aV11:20
p270
aV11:51
p271
aa(lp272
VHyde Park
p273
aV05:55
p274
aV06:20
p275
aV06:43
p276
ag41
aV07:08
p277
ag41
aV07:51
p278
ag41
ag41
aV08:21
p279
ag41
aV08:51
p280
aV09:20
p281
aV09:36
p282
ag41
aV11:01
p283
aV12:05
p284
aV01:57
p285
ag41
aV02:48
p286
aV04:00
p287
ag41
aV05:06
p288
aV05:36
p289
ag41
aV06:34
p290
ag41
aV07:42
p291
ag41
aV08:20
p292
ag41
aV09:10
p293
aV10:20
p294
aV10:56
p295
aV11:25
p296
aV11:56
p297
aa(lp298
VRuggles
p299
aV06:04
p300
aV06:30
p301
ag41
ag41
ag41
aV07:25
p302
ag41
ag41
aV08:20
p303
ag41
ag41
ag41
aV09:29
p304
ag41
aV10:50
p305
ag41
aV12:14
p306
ag41
ag41
ag41
ag41
ag41
ag41
ag41
ag41
ag41
ag41
ag41
ag41
ag41
ag41
ag41
ag41
ag41
ag41
ag41
aa(lp307
VBack Bay
p308
aV06:08
p309
aV06:34
p310
aV06:52
p311
aV06:59
p312
aV07:17
p313
aV07:29
p314
aV08:00
p315
aV08:10
p316
aV08:24
p317
aV08:30
p318
aV08:49
p319
aV09:00
p320
aV09:33
p321
aV09:45
p322
aV10:54
p323
aV11:12
p324
aV12:18
p325
aV02:06
p326
aV02:44
p327
aV02:57
p328
aV04:10
p329
aV05:02
p330
aV05:17
p331
aV05:45
p332
aV06:17
p333
aV06:43
p334
aV06:55
p335
aV07:51
p336
aV08:10
p337
aV08:29
p338
aV09:03
p339
aV09:19
p340
aV10:29
p341
aV11:05
p342
aV11:34
p343
aV12:05
p344
aa(lp345
VSouth Station
p346
aV06:14
p347
aV06:40
p348
aV06:58
p349
aV07:05
p350
aV07:23
p351
aV07:35
p352
aV08:06
p353
aV08:16
p354
aV08:30
p355
aV08:36
p356
aV08:55
p357
aV09:06
p358
aV09:39
p359
aV09:51
p360
aV10:59
p361
aV11:17
p362
aV12:23
p363
aV02:11
p364
aV02:49
p365
aV03:02
p366
aV04:15
p367
aV05:07
p368
aV05:22
p369
aV05:50
p370
aV06:22
p371
aV06:48
p372
aV07:00
p373
aV07:56
p374
aV08:15
p375
aV08:34
p376
aV09:08
p377
aV09:24
p378
aV10:34
p379
aV11:10
p380
aV11:39
p381
aV12:10
p382
aa.