(lp0
(lp1
VTrain Number
p2
aV2805\u000aAM
p3
aV2807\u000aPM
p4
aV2809\u000aPM
p5
aV2811\u000aPM
p6
aV2813\u000aPM
p7
aV2815\u000aPM
p8
aV2817\u000aPM
p9
aa(lp10
VSouth Station
p11
aV11:05
p12
aV01:05
p13
aV02:25
p14
aV04:35
p15
aV06:45
p16
aV08:45
p17
aV11:10
p18
aa(lp19
VBack Bay
p20
aV11:10
p21
aV01:10
p22
aV02:30
p23
aV04:40
p24
aV06:50
p25
aV08:50
p26
aV11:15
p27
aa(lp28
VRuggles
p29
aV11:13
p30
aV01:13
p31
aV02:33
p32
aV04:43
p33
aV06:53
p34
aV08:53
p35
aV11:18
p36
aa(lp37
VHyde Park
p38
aV11:21
p39
aV01:21
p40
aV02:41
p41
aV04:51
p42
aV07:01
p43
aV09:01
p44
aV11:26
p45
aa(lp46
VRoute 128
p47
aV11:31
p48
aV01:31
p49
aV02:46
p50
aV04:56
p51
aV07:06
p52
aV09:06
p53
aV11:31
p54
aa(lp55
VCanton Junction
p56
aV11:36
p57
aV01:36
p58
aV02:51
p59
aV05:01
p60
aV07:11
p61
aV09:11
p62
aV11:36
p63
aa(lp64
VSharon
p65
aV11:41
p66
aV01:41
p67
aV02:56
p68
aV05:06
p69
aV07:16
p70
aV09:16
p71
aV11:41
p72
aa(lp73
VMansfield
p74
aV11:49
p75
aV01:49
p76
aV03:04
p77
aV05:14
p78
aV07:24
p79
aV09:24
p80
aV11:49
p81
aa(lp82
VAttleboro
p83
aV11:56
p84
aV01:56
p85
aV03:11
p86
aV05:21
p87
aV07:31
p88
aV09:31
p89
aV11:56
p90
aa(lp91
VSouth Attleboro
p92
aV12:05
p93
aV02:05
p94
aV03:20
p95
aV05:30
p96
aV07:40
p97
aV09:40
p98
aV12:05
p99
aa(lp100
VProvidence
p101
aV12:15
p102
aV02:15
p103
aV03:30
p104
aV05:40
p105
aV07:50
p106
aV09:50
p107
aV12:15
p108
aa.