(lp0
(lp1
VTrain Number
p2
aV1801\u000aAM
p3
aV1803\u000aAM
p4
aV1805\u000aAM
p5
aV1807\u000aPM
p6
aV1809\u000aPM
p7
aV1811\u000aPM
p8
aV1813\u000aPM
p9
aV1815\u000aPM
p10
aV1817\u000aPM
p11
aa(lp12
VSouth Station
p13
aV06:45
p14
aV10:05
p15
aV11:05
p16
aV01:05
p17
aV02:25
p18
aV04:35
p19
aV06:45
p20
aV08:45
p21
aV11:10
p22
aa(lp23
VBack Bay
p24
aV06:50
p25
aV10:10
p26
aV11:10
p27
aV01:10
p28
aV02:30
p29
aV04:40
p30
aV06:50
p31
aV08:50
p32
aV11:15
p33
aa(lp34
VRuggles
p35
aV06:53
p36
aV10:13
p37
aV11:13
p38
aV01:13
p39
aV02:33
p40
aV04:43
p41
aV06:53
p42
aV08:53
p43
aV11:18
p44
aa(lp45
VHyde Park
p46
aV07:01
p47
aV10:21
p48
aV11:21
p49
aV01:21
p50
aV02:41
p51
aV04:51
p52
aV07:01
p53
aV09:01
p54
aV11:26
p55
aa(lp56
VRoute 128
p57
aV07:06
p58
aV10:26
p59
aV11:31
p60
aV01:31
p61
aV02:46
p62
aV04:56
p63
aV07:06
p64
aV09:06
p65
aV11:31
p66
aa(lp67
VCanton Junction
p68
aV07:11
p69
aV10:31
p70
aV11:36
p71
aV01:36
p72
aV02:51
p73
aV05:01
p74
aV07:11
p75
aV09:11
p76
aV11:36
p77
aa(lp78
VSharon
p79
aV07:16
p80
aV10:36
p81
aV11:41
p82
aV01:41
p83
aV02:56
p84
aV05:06
p85
aV07:16
p86
aV09:16
p87
aV11:41
p88
aa(lp89
VMansfield
p90
aV07:24
p91
aV10:44
p92
aV11:49
p93
aV01:49
p94
aV03:04
p95
aV05:14
p96
aV07:24
p97
aV09:24
p98
aV11:49
p99
aa(lp100
VAttleboro
p101
aV07:31
p102
aV10:51
p103
aV11:56
p104
aV01:56
p105
aV03:11
p106
aV05:21
p107
aV07:31
p108
aV09:31
p109
aV11:56
p110
aa(lp111
VSouth Attleboro
p112
aV07:40
p113
aV11:00
p114
aV12:05
p115
aV02:05
p116
aV03:20
p117
aV05:30
p118
aV07:40
p119
aV09:40
p120
aV12:05
p121
aa(lp122
VProvidence
p123
aV07:50
p124
aV11:10
p125
aV12:15
p126
aV02:15
p127
aV03:30
p128
aV05:40
p129
aV07:50
p130
aV09:50
p131
aV12:15
p132
aa.