(lp0
(lp1
VTrain Number
p2
aV500\u000aAM
p3
aV502\u000aAM
p4
aV580\u000aAM
p5
aV504\u000aAM
p6
aV582\u000aAM
p7
aV506\u000aAM
p8
aV508\u000aAM
p9
aV584\u000aAM
p10
aV510\u000aAM
p11
aV552\u000aAM
p12
aV586\u000aAM
p13
aV512\u000aAM
p14
aV514\u000aAM
p15
aV516\u000aPM
p16
aV518\u000aPM
p17
aV522\u000aPM
p18
aV588\u000aPM
p19
aV590\u000aPM
p20
aV524\u000aPM
p21
aV526\u000aPM
p22
aV592\u000aPM
p23
aV528\u000aPM
p24
aV530\u000aPM
p25
aV532\u000aPM
p26
aV534\u000aPM
p27
aV536\u000aPM
p28
aV538\u000aAM
p29
aa(lp30
VWorcester / Union Station
p31
aV04:45
p32
aV05:15
p33
aV 
p34
aV05:55
p35
ag34
aV06:30
p36
aV07:00
p37
ag34
aV07:30
p38
aV08:05
p39
ag34
aV08:40
p40
aV10:40
p41
aV12:05
p42
aV02:15
p43
aV03:45
p44
ag34
ag34
aV05:20
p45
aV06:05
p46
ag34
aV07:15
p47
aV08:00
p48
aV08:30
p49
aV09:35
p50
aV11:20
p51
aV12:20
p52
aa(lp53
VGrafton
p54
aV04:58
p55
aV05:28
p56
ag34
aV06:08
p57
ag34
aV06:43
p58
aV07:13
p59
ag34
aV07:43
p60
ag34
ag34
aV08:53
p61
aV10:53
p62
aV12:18
p63
aV02:28
p64
aV03:58
p65
ag34
ag34
aV05:33
p66
aV06:18
p67
ag34
aV07:28
p68
aV08:13
p69
aV08:43
p70
aV09:48
p71
aV11:33F
p72
aV12:33F
p73
aa(lp74
VWestborough
p75
aV05:02
p76
aV05:32
p77
ag34
aV06:12
p78
ag34
aV06:47
p79
aV07:17
p80
ag34
aV07:47
p81
ag34
ag34
aV08:57
p82
aV10:57
p83
aV12:22
p84
aV02:32
p85
aV04:02
p86
ag34
ag34
aV05:37
p87
aV06:22
p88
ag34
aV07:32
p89
aV08:17
p90
aV08:47
p91
aV09:52
p92
aV11:37F
p93
aV12:37F
p94
aa(lp95
VSouthborough
p96
aV05:11
p97
aV05:41
p98
ag34
aV06:21
p99
ag34
aV06:56
p100
aV07:26
p101
ag34
aV07:56
p102
ag34
ag34
aV09:06
p103
aV11:06
p104
aV12:31
p105
aV02:41
p106
aV04:11
p107
ag34
ag34
aV05:46
p108
aV06:31
p109
ag34
aV07:41
p110
aV08:26
p111
aV08:56
p112
aV10:01
p113
aV11:46F
p114
aV12:46F
p115
aa(lp116
VAshland
p117
aV05:15
p118
aV05:45
p119
ag34
aV06:25
p120
ag34
aV07:00
p121
aV07:30
p122
ag34
aV08:00
p123
ag34
ag34
aV09:10
p124
aV11:10
p125
aV12:35
p126
aV02:45
p127
aV04:15
p128
ag34
ag34
aV05:50
p129
aV06:35
p130
ag34
aV07:45
p131
aV08:30
p132
aV09:00
p133
aV10:05
p134
aV11:50F
p135
aV12:50F
p136
aa(lp137
VFramingham
p138
aV05:26
p139
aV05:56
p140
aV06:05
p141
aV06:36
p142
aV06:46
p143
aV07:11
p144
aV07:42
p145
aV07:50
p146
aV08:11
p147
ag34
aV08:40
p148
aV09:21
p149
aV11:21
p150
aV12:46
p151
aV02:56
p152
aV04:26
p153
aV04:47
p154
aV05:40
p155
aV06:01
p156
aV06:46
p157
aV07:05
p158
aV07:56
p159
aV08:41
p160
aV09:11
p161
aV10:16
p162
aV12:01F
p163
aV01:01F
p164
aa(lp165
VWest Natick
p166
aV05:31
p167
aV06:01
p168
aV06:10
p169
aV06:41
p170
aV06:51
p171
aV07:16
p172
aV07:49
p173
aV07:55
p174
aV08:16
p175
ag34
aV08:45
p176
aV09:26
p177
aV11:26
p178
aV12:51
p179
aV03:01
p180
ag34
aV04:52
p181
ag34
aV06:06
p182
ag34
aV07:10
p183
aV08:01
p184
aV08:46
p185
aV09:16
p186
aV10:21
p187
aV12:06F
p188
aV01:06F
p189
aa(lp190
VNatick
p191
aV05:36
p192
aV06:05
p193
aV06:15
p194
ag34
aV06:56
p195
aV07:21
p196
ag34
aV08:00
p197
aV08:20
p198
ag34
aV08:50
p199
aV09:31
p200
aV11:31
p201
aV12:56
p202
aV03:06
p203
ag34
aV04:57
p204
ag34
aV06:11
p205
ag34
aV07:15
p206
aV08:06
p207
aV08:51
p208
aV09:21
p209
aV10:26
p210
aV12:11F
p211
aV01:11F
p212
aa(lp213
VWellesley Square
p214
aV05:41
p215
ag34
aV06:20
p216
ag34
aV07:01
p217
aV07:26
p218
ag34
aV08:05
p219
aV08:25
p220
ag34
aV08:55
p221
aV09:36
p222
aV11:35
p223
aV01:00
p224
aV03:10
p225
ag34
aV05:01
p226
ag34
aV06:15
p227
ag34
aV07:19
p228
aV08:10
p229
aV08:55
p230
aV09:25
p231
aV10:30
p232
aV12:15F
p233
aV01:15F
p234
aa(lp235
VWellesley Hills
p236
aV05:45
p237
ag34
aV06:24
p238
ag34
aV07:05
p239
aV07:30
p240
ag34
aV08:09
p241
aV08:29
p242
ag34
aV08:59
p243
aV09:40
p244
aV11:39
p245
aV01:04
p246
aV03:14
p247
ag34
aV05:05
p248
ag34
aV06:19
p249
ag34
aV07:23
p250
aV08:14
p251
aV08:59
p252
aV09:29
p253
aV10:34
p254
aV12:19F
p255
aV01:19F
p256
aa(lp257
VWellesley Farms
p258
aV05:48
p259
ag34
aV06:27
p260
ag34
aV07:08
p261
aV07:34
p262
ag34
aV08:12
p263
aV08:32
p264
ag34
aV09:02
p265
aV09:43
p266
aV11:42
p267
aV01:07
p268
aV03:17
p269
ag34
aV05:08
p270
ag34
aV06:22
p271
ag34
aV07:26
p272
aV08:17
p273
aV09:02
p274
aV09:32
p275
aV10:37
p276
aV12:22F
p277
aV01:22F
p278
aa(lp279
VAuburndale
p280
aV05:53
p281
ag34
aV06:32
p282
ag34
aV07:13
p283
aV07:39
p284
ag34
aV08:17
p285
ag34
ag34
aV09:07
p286
aV09:48F
p287
aV11:47F
p288
aV01:12F
p289
ag34
ag34
ag34
ag34
ag34
ag34
aV07:31F
p290
ag34
aV09:07F
p291
ag34
ag34
aV12:27F
p292
aV01:27F
p293
aa(lp294
VWest Newton
p295
aV05:56
p296
ag34
aV06:35
p297
ag34
aV07:16
p298
aV07:42
p299
ag34
aV08:20
p300
ag34
ag34
aV09:10
p301
aV09:51F
p302
aV11:50F
p303
aV01:15F
p304
ag34
ag34
ag34
ag34
ag34
ag34
aV07:34F
p305
ag34
aV09:10F
p306
ag34
ag34
aV12:30F
p307
aV01:30F
p308
aa(lp309
VNewtonville
p310
aV05:59
p311
ag34
aV06:38
p312
ag34
aV07:19
p313
aV07:46
p314
ag34
aV08:23
p315
ag34
ag34
aV09:13
p316
aV09:54F
p317
aV11:53F
p318
aV01:18F
p319
ag34
ag34
ag34
ag34
ag34
ag34
aV07:37F
p320
ag34
aV09:13F
p321
ag34
ag34
aV12:33F
p322
aV01:33F
p323
aa(lp324
VYawkey
p325
aV06:07
p326
aV06:22
p327
aV06:48
p328
aV07:00
p329
aV07:27
p330
aV07:56
p331
aV08:09
p332
aV08:33
p333
aV08:46
p334
aV08:57
p335
aV09:23
p336
aV10:02
p337
aV12:01
p338
aV01:26
p339
aV03:30
p340
aV04:46
p341
aV05:21
p342
aV06:07
p343
aV06:35
p344
aV07:08
p345
aV07:45
p346
aV08:30
p347
aV09:21
p348
aV09:45
p349
aV10:50
p350
aV12:41
p351
aV01:41
p352
aa(lp353
VBack Bay
p354
aV06:12
p355
aV06:27
p356
aV06:53
p357
aV07:05
p358
aV07:32
p359
aV08:01
p360
aV08:14
p361
aV08:38
p362
aV08:51
p363
aV09:02
p364
aV09:28
p365
aV10:07
p366
aV12:06
p367
aV01:31
p368
aV03:35
p369
aV04:51
p370
aV05:26
p371
aV06:12
p372
aV06:40
p373
aV07:13
p374
aV07:50
p375
aV08:35
p376
aV09:26
p377
aV09:50
p378
aV10:55
p379
aV12:46
p380
aV01:46
p381
aa(lp382
VSouth Station
p383
aV06:18
p384
aV06:33
p385
aV06:59
p386
aV07:11
p387
aV07:38
p388
aV08:07
p389
aV08:20
p390
aV08:44
p391
aV08:57
p392
aV09:07
p393
aV09:34
p394
aV10:12
p395
aV12:11
p396
aV01:36
p397
aV03:40
p398
aV05:06
p399
aV05:41
p400
aV06:17
p401
aV06:45
p402
aV07:23
p403
aV07:55
p404
aV08:40
p405
aV09:31
p406
aV09:55
p407
aV11:00
p408
aV12:51
p409
aV01:51
p410
aa.