(lp0
(lp1
VTrain Number
p2
aV2500\u000aAM
p3
aV2502\u000aAM
p4
aV2504\u000aAM
p5
aV2506\u000aPM
p6
aV2508\u000aPM
p7
aV2510\u000aPM
p8
aV2512\u000aPM
p9
aV2514\u000aPM
p10
aV2516\u000aPM
p11
aa(lp12
VWorcester / Union Station
p13
aV07:00
p14
aV08:50
p15
aV10:50
p16
aV12:50
p17
aV02:30
p18
aV04:30
p19
aV06:30
p20
aV08:30
p21
aV11:00
p22
aa(lp23
VGrafton
p24
aV07:13
p25
aV09:03
p26
aV11:03
p27
aV01:03
p28
aV02:43
p29
aV04:43
p30
aV06:43
p31
aV08:43
p32
aV11:13F
p33
aa(lp34
VWestborough
p35
aV07:17
p36
aV09:07
p37
aV11:07
p38
aV01:07
p39
aV02:47
p40
aV04:47
p41
aV06:47
p42
aV08:47
p43
aV11:17F
p44
aa(lp45
VSouthborough
p46
aV07:25
p47
aV09:15
p48
aV11:15
p49
aV01:15
p50
aV02:55
p51
aV04:55
p52
aV06:55
p53
aV08:55
p54
aV11:25F
p55
aa(lp56
VAshland
p57
aV07:30
p58
aV09:20
p59
aV11:20
p60
aV01:20
p61
aV03:00
p62
aV05:00
p63
aV07:00
p64
aV09:00
p65
aV11:30F
p66
aa(lp67
VFramingham
p68
aV07:40
p69
aV09:30
p70
aV11:30
p71
aV01:30
p72
aV03:10
p73
aV05:10
p74
aV07:10
p75
aV09:10
p76
aV11:40F
p77
aa(lp78
VWest Natick
p79
aV07:44
p80
aV09:34
p81
aV11:34
p82
aV01:34
p83
aV03:14
p84
aV05:14
p85
aV07:14
p86
aV09:14
p87
aV11:44F
p88
aa(lp89
VNatick
p90
aV07:49
p91
aV09:39
p92
aV11:39
p93
aV01:39
p94
aV03:19
p95
aV05:19
p96
aV07:19
p97
aV09:19
p98
aV11:49F
p99
aa(lp100
VWellesley Square
p101
aV07:54
p102
aV09:44
p103
aV11:44
p104
aV01:44
p105
aV03:24
p106
aV05:24
p107
aV07:24
p108
aV09:24
p109
aV11:54F
p110
aa(lp111
VWellesley Hills
p112
aV07:57
p113
aV09:47
p114
aV11:47
p115
aV01:47
p116
aV03:27
p117
aV05:27
p118
aV07:27
p119
aV09:27
p120
aV11:57F
p121
aa(lp122
VWellesley Farms
p123
aV08:00
p124
aV09:50
p125
aV11:50
p126
aV01:50
p127
aV03:30
p128
aV05:30
p129
aV07:30
p130
aV09:30
p131
aV12:00F
p132
aa(lp133
VAuburndale
p134
aV08:05F
p135
aV09:55F
p136
aV11:55F
p137
aV01:55F
p138
aV03:35F
p139
aV05:35F
p140
aV07:35F
p141
aV09:35F
p142
aV12:05F
p143
aa(lp144
VWest Newton
p145
aV08:08F
p146
aV09:58F
p147
aV11:58F
p148
aV01:58F
p149
aV03:38F
p150
aV05:38F
p151
aV07:38F
p152
aV09:38F
p153
aV12:08F
p154
aa(lp155
VNewtonville
p156
aV08:11F
p157
aV10:01F
p158
aV12:01F
p159
aV02:01F
p160
aV03:41F
p161
aV05:41F
p162
aV07:41F
p163
aV09:41F
p164
aV12:11F
p165
aa(lp166
VYawkey
p167
aV08:21
p168
aV10:11
p169
aV12:11
p170
aV02:11
p171
aV03:51
p172
aV05:51
p173
aV07:51
p174
aV09:51
p175
aV12:21
p176
aa(lp177
VBack Bay
p178
aV08:25
p179
aV10:15
p180
aV12:15
p181
aV02:15
p182
aV03:55
p183
aV05:55
p184
aV07:55
p185
aV09:55
p186
aV12:25
p187
aa(lp188
VSouth Station
p189
aV08:30
p190
aV10:20
p191
aV12:20
p192
aV02:20
p193
aV04:00
p194
aV06:00
p195
aV08:00
p196
aV10:00
p197
aV12:30
p198
aa.