(lp0
(lp1
VTrain Number
p2
aV1501\u000aAM
p3
aV1503\u000aAM
p4
aV1505\u000aAM
p5
aV1507\u000aPM
p6
aV1509\u000aPM
p7
aV1511\u000aPM
p8
aV1513\u000aPM
p9
aV1515\u000aPM
p10
aV1517\u000aPM
p11
aa(lp12
VSouth Station
p13
aV06:40
p14
aV08:40
p15
aV10:40
p16
aV12:40
p17
aV02:20
p18
aV04:20
p19
aV06:20
p20
aV08:20
p21
aV10:40
p22
aa(lp23
VBack Bay
p24
aV06:46
p25
aV08:46
p26
aV10:46
p27
aV12:46
p28
aV02:26
p29
aV04:26
p30
aV06:26
p31
aV08:26
p32
aV10:46
p33
aa(lp34
VYawkey
p35
aV06:50
p36
aV08:50
p37
aV10:50
p38
aV12:50
p39
aV02:30
p40
aV04:30
p41
aV06:30
p42
aV08:30
p43
aV10:50
p44
aa(lp45
VNewtonville
p46
aV06:58F
p47
aV08:58F
p48
aV10:58F
p49
aV12:58F
p50
aV02:38F
p51
aV04:38F
p52
aV06:38F
p53
aV08:38F
p54
aV10:58F
p55
aa(lp56
VWest Newton
p57
aV07:01F
p58
aV09:01F
p59
aV11:01F
p60
aV01:01F
p61
aV02:41F
p62
aV04:41F
p63
aV06:41F
p64
aV08:41F
p65
aV11:01F
p66
aa(lp67
VAuburndale
p68
aV07:04F
p69
aV09:04F
p70
aV11:04F
p71
aV01:04F
p72
aV02:44F
p73
aV04:44F
p74
aV06:44F
p75
aV08:44F
p76
aV11:04F
p77
aa(lp78
VWellesley Farms
p79
aV07:09
p80
aV09:09
p81
aV11:09
p82
aV01:09
p83
aV02:49
p84
aV04:49
p85
aV06:49
p86
aV08:49
p87
aV11:09
p88
aa(lp89
VWellesley Hills
p90
aV07:12
p91
aV09:12
p92
aV11:12
p93
aV01:12
p94
aV02:52
p95
aV04:52
p96
aV06:52
p97
aV08:52
p98
aV11:12
p99
aa(lp100
VWellesley Square
p101
aV07:15
p102
aV09:15
p103
aV11:15
p104
aV01:15
p105
aV02:55
p106
aV04:55
p107
aV06:55
p108
aV08:55
p109
aV11:15
p110
aa(lp111
VNatick
p112
aV07:20
p113
aV09:20
p114
aV11:20
p115
aV01:20
p116
aV03:00
p117
aV05:00
p118
aV07:00
p119
aV09:00
p120
aV11:20
p121
aa(lp122
VWest Natick
p123
aV07:26
p124
aV09:26
p125
aV11:26
p126
aV01:26
p127
aV03:06
p128
aV05:06
p129
aV07:06
p130
aV09:06
p131
aV11:26
p132
aa(lp133
VFramingham
p134
aV07:31
p135
aV09:31
p136
aV11:31
p137
aV01:31
p138
aV03:11
p139
aV05:11
p140
aV07:11
p141
aV09:11
p142
aV11:31
p143
aa(lp144
VAshland
p145
aV07:37
p146
aV09:37
p147
aV11:37
p148
aV01:37
p149
aV03:17
p150
aV05:17
p151
aV07:17
p152
aV09:17
p153
aV11:37
p154
aa(lp155
VSouthborough
p156
aV07:41
p157
aV09:41
p158
aV11:41
p159
aV01:41
p160
aV03:21
p161
aV05:21
p162
aV07:21
p163
aV09:21
p164
aV11:41
p165
aa(lp166
VWestborough
p167
aV07:50
p168
aV09:50
p169
aV11:50
p170
aV01:50
p171
aV03:30
p172
aV05:30
p173
aV07:30
p174
aV09:30
p175
aV11:50
p176
aa(lp177
VGrafton
p178
aV07:55
p179
aV09:55
p180
aV11:55
p181
aV01:55
p182
aV03:35
p183
aV05:35
p184
aV07:35
p185
aV09:35
p186
aV11:55
p187
aa(lp188
VWorcester / Union Station
p189
aV08:10
p190
aV10:10
p191
aV12:10
p192
aV02:10
p193
aV03:50
p194
aV05:50
p195
aV07:50
p196
aV09:50
p197
aV12:10
p198
aa.