(lp0
(lp1
VTrain Number
p2
aV501\u000aAM
p3
aV581\u000aAM
p4
aV583\u000aAM
p5
aV503\u000aAM
p6
aV585\u000aAM
p7
aV505\u000aAM
p8
aV587\u000aAM
p9
aV507\u000aAM
p10
aV509\u000aAM
p11
aV511\u000aAM
p12
aV515\u000aPM
p13
aV517\u000aPM
p14
aV589\u000aPM
p15
aV519\u000aPM
p16
aV591\u000aPM
p17
aV521\u000aPM
p18
aV593\u000aPM
p19
aV523\u000aPM
p20
aV525\u000aPM
p21
aV527\u000aPM
p22
aV529\u000aPM
p23
aV551\u000aPM
p24
aV531\u000aPM
p25
aV533\u000aPM
p26
aV535\u000aPM
p27
aV537\u000aPM
p28
aV539\u000aPM
p29
aa(lp30
VSouth Station
p31
aV04:55
p32
aV05:00
p33
aV05:30
p34
aV05:45
p35
aV06:48
p36
aV07:15
p37
aV07:26
p38
aV08:55
p39
aV10:15
p40
aV11:55
p41
aV02:00
p42
aV03:30
p43
aV03:40
p44
aV04:25
p45
aV04:35
p46
aV05:05
p47
aV05:15
p48
aV05:40
p49
aV05:50
p50
aV06:20
p51
aV06:45
p52
aV07:35
p53
aV07:45
p54
aV08:30
p55
aV09:35
p56
aV10:30
p57
aV11:30
p58
aa(lp59
VBack Bay
p60
aV05:00
p61
aV05:05
p62
aV05:35
p63
aV05:50
p64
aV06:53
p65
aV07:21
p66
aV07:32
p67
aV09:01
p68
aV10:21
p69
aV12:01
p70
aV02:06
p71
aV03:36
p72
aV03:46
p73
aV04:31
p74
aV04:41
p75
aV05:11
p76
aV05:21
p77
aV05:46
p78
aV05:56
p79
aV06:26
p80
aV06:51
p81
aV07:41
p82
aV07:51
p83
aV08:36
p84
aV09:41
p85
aV10:36
p86
aV11:36
p87
aa(lp88
VYawkey
p89
aV05:05
p90
aV05:10
p91
aV05:40
p92
aV05:55
p93
aV06:58
p94
aV 
p95
aV07:37
p96
aV09:06
p97
aV10:26
p98
aV12:06
p99
aV02:11
p100
aV03:41
p101
aV03:51
p102
aV04:36
p103
aV04:46
p104
aV05:16
p105
aV05:26
p106
aV05:51
p107
aV06:01
p108
aV06:31
p109
aV06:56
p110
aV07:46
p111
aV07:56
p112
aV08:41
p113
aV09:46
p114
aV10:41
p115
aV11:41
p116
aa(lp117
VNewtonville
p118
ag95
aV05:19F
p119
ag95
ag95
ag95
ag95
ag95
ag95
aV10:35F
p120
aV12:15F
p121
aV02:20F
p122
ag95
aV04:00
p123
ag95
aV04:55
p124
ag95
aV05:35
p125
ag95
aV06:11
p126
ag95
aV07:05
p127
ag95
aV08:05F
p128
aV08:50F
p129
aV09:55F
p130
aV10:50F
p131
aV11:50F
p132
aa(lp133
VWest Newton
p134
ag95
aV05:23F
p135
ag95
ag95
ag95
ag95
ag95
ag95
aV10:39F
p136
aV12:19F
p137
aV02:24F
p138
ag95
aV04:04
p139
ag95
aV04:59
p140
ag95
aV05:39
p141
ag95
aV06:15
p142
ag95
aV07:09
p143
ag95
aV08:09F
p144
aV08:54F
p145
aV09:59F
p146
aV10:54F
p147
aV11:54F
p148
aa(lp149
VAuburndale
p150
ag95
aV05:26F
p151
ag95
ag95
ag95
ag95
ag95
ag95
aV10:42F
p152
aV12:22F
p153
aV02:27F
p154
ag95
aV04:07
p155
ag95
aV05:02
p156
ag95
aV05:42
p157
ag95
aV06:18
p158
ag95
aV07:12
p159
ag95
aV08:12F
p160
aV08:57F
p161
aV10:02F
p162
aV10:57F
p163
aV11:57F
p164
aa(lp165
VWellesley Farms
p166
ag95
aV05:29
p167
aV05:53
p168
aV06:08
p169
aV07:11
p170
ag95
aV07:50
p171
aV09:19
p172
aV10:45
p173
aV12:25
p174
aV02:30
p175
ag95
aV04:10
p176
ag95
aV05:05
p177
ag95
aV05:45
p178
ag95
aV06:23
p179
aV06:45
p180
aV07:15
p181
ag95
aV08:15
p182
aV09:00
p183
aV10:05
p184
aV11:00
p185
aV12:00
p186
aa(lp187
VWellesley Hills
p188
ag95
aV05:32
p189
aV05:56
p190
aV06:11
p191
aV07:14
p192
ag95
aV07:53
p193
aV09:22
p194
aV10:48
p195
aV12:28
p196
aV02:33
p197
ag95
aV04:13
p198
ag95
aV05:08
p199
ag95
aV05:48
p200
ag95
aV06:26
p201
aV06:48
p202
aV07:18
p203
ag95
aV08:18
p204
aV09:03
p205
aV10:08
p206
aV11:03
p207
aV12:03
p208
aa(lp209
VWellesley Square
p210
ag95
aV05:36
p211
aV06:00
p212
aV06:15
p213
aV07:18
p214
ag95
aV07:57
p215
aV09:26
p216
aV10:52
p217
aV12:32
p218
aV02:37
p219
ag95
aV04:17
p220
ag95
aV05:12
p221
ag95
aV05:52
p222
ag95
aV06:30
p223
aV06:52
p224
aV07:22
p225
ag95
aV08:22
p226
aV09:07
p227
aV10:12
p228
aV11:07
p229
aV12:07
p230
aa(lp231
VNatick
p232
ag95
aV05:40
p233
aV06:04
p234
aV06:19
p235
aV07:22
p236
ag95
aV08:01
p237
aV09:30
p238
aV10:56
p239
aV12:36
p240
aV02:41
p241
ag95
aV04:21
p242
aV04:55
p243
aV05:16
p244
ag95
aV05:56
p245
ag95
aV06:34
p246
aV06:56
p247
aV07:26
p248
ag95
aV08:26
p249
aV09:11
p250
aV10:16
p251
aV11:11
p252
aV12:11
p253
aa(lp254
VWest Natick
p255
aV05:24
p256
aV05:45
p257
aV06:09
p258
aV06:24
p259
aV07:27
p260
ag95
aV08:05
p261
aV09:34
p262
aV11:01
p263
aV12:41
p264
aV02:46
p265
aV04:01
p266
aV04:26
p267
aV05:00
p268
aV05:21
p269
aV05:37
p270
aV06:01
p271
aV06:12
p272
aV06:39
p273
aV07:01
p274
aV07:31
p275
ag95
aV08:31
p276
aV09:16
p277
aV10:21
p278
aV11:16
p279
aV12:16
p280
aa(lp281
VFramingham
p282
aV05:28
p283
aV05:50
p284
aV06:14
p285
aV06:29
p286
aV07:32
p287
aV07:46
p288
aV08:10
p289
aV09:39
p290
aV11:06
p291
aV12:46
p292
aV02:51
p293
aV04:06
p294
aV04:32
p295
aV05:05
p296
aV05:27
p297
aV05:45
p298
aV06:14
p299
aV06:20
p300
aV06:44
p301
aV07:06
p302
aV07:36
p303
ag95
aV08:36
p304
aV09:21
p305
aV10:26
p306
aV11:21
p307
aV12:21
p308
aa(lp309
VAshland
p310
aV05:34
p311
ag95
ag95
aV06:35
p312
ag95
aV07:52
p313
ag95
aV09:45
p314
aV11:12
p315
aV12:52
p316
aV02:57
p317
aV04:12
p318
ag95
aV05:11
p319
ag95
aV05:52
p320
ag95
aV06:27
p321
aV06:50
p322
aV07:12
p323
aV07:42
p324
ag95
aV08:42
p325
aV09:27
p326
aV10:32
p327
aV11:27
p328
aV12:27
p329
aa(lp330
VSouthborough
p331
aV05:39
p332
ag95
ag95
aV06:40
p333
ag95
aV07:57
p334
ag95
aV09:50
p335
aV11:17
p336
aV12:57
p337
aV03:02
p338
aV04:17
p339
ag95
aV05:16
p340
ag95
aV05:57
p341
ag95
aV06:32
p342
aV06:55
p343
aV07:17
p344
aV07:47
p345
ag95
aV08:47
p346
aV09:32
p347
aV10:37
p348
aV11:32
p349
aV12:32
p350
aa(lp351
VWestborough
p352
aV05:48
p353
ag95
ag95
aV06:49
p354
ag95
aV08:06
p355
ag95
aV09:59
p356
aV11:26
p357
aV01:06
p358
aV03:11
p359
aV04:26
p360
ag95
aV05:25
p361
ag95
aV06:06
p362
ag95
aV06:41
p363
aV07:04
p364
aV07:26
p365
aV07:56
p366
ag95
aV08:56
p367
aV09:41
p368
aV10:46
p369
aV11:41
p370
aV12:41
p371
aa(lp372
VGrafton
p373
aV05:53
p374
ag95
ag95
aV06:54
p375
ag95
aV08:11
p376
ag95
aV10:04
p377
aV11:31
p378
aV01:11
p379
aV03:16
p380
aV04:31
p381
ag95
aV05:30
p382
ag95
aV06:11
p383
ag95
aV06:46
p384
aV07:09
p385
aV07:31
p386
aV08:01
p387
ag95
aV09:01
p388
aV09:46
p389
aV10:51
p390
aV11:46
p391
aV12:46
p392
aa(lp393
VWorcester / Union Station
p394
aV06:06
p395
ag95
ag95
aV07:07
p396
ag95
aV08:24
p397
ag95
aV10:17
p398
aV11:45
p399
aV01:24
p400
aV03:30
p401
aV04:49
p402
ag95
aV05:50
p403
ag95
aV06:32
p404
ag95
aV07:10
p405
aV07:28
p406
aV07:45
p407
aV08:14
p408
aV08:40
p409
aV09:15
p410
aV10:00
p411
aV11:05
p412
aV12:00
p413
aV01:00
p414
aa.